Turbo Assembler	 Version 3.2	    03/09/00 02:20:48	    Page 1
my.asm



      1				     ;101 - Не хватает памяти для новой	особой области
      2				     ;102 - Нет	особых областей
      3				     ;201 - Мышь
      4
      5				     .286
      6
      7	0000			     code	     segment
      8
      9						     public VESAInit,GetModeInfo,GraphResult,VESADone
     10
     11	0000  ????		     ModeAttrs	     dw	?
     12	0002  ??		     WinAAttrs	     db	?
     13	0003  ??		     WinBAttrs	     db	?
     14	0004  ????		     WinGran	     dw	?
     15	0006  ????		     WinSize	     dw	?
     16	0008  ????		     StartSegA	     dw	?
     17	000A  ????		     StartSegB	     dw	?
     18	000C  ????????		     WPosPtr	     dd	?
     19	0010  ????		     ByteInLine	     dw	?
     20	0012  ????		     ScreenX	     dw	?
     21	0014  ????		     ScreenY	     dw	?
     22	0016  ??		     CharWidth	     db	?
     23	0017  ??		     CharHeight	     db	?
     24	0018  ??		     MemPlanes	     db	?
     25	0019  ??		     BitsPerPixel    db	?
     26	001A  ??		     Banks	     db	?
     27	001B  ??		     MemModel	     db	?
     28	001C  ??		     BankSize	     db	?
     29	001D  ??		     ImagePages	     db	?
     30	001E  EC*(??)		     RestOfBuffer    db	236 dup	(?)
     31	010A  0001		     GranPerBank     dw	1
     32	010C  ??		     _Result	     db	?
     33	010D  ????		     _GranSize	     dw	?
     34	010F  ????		     _GranUnit	     dw	?
     35	0111  ??		     _Color	     db	?
     36	0112  ????		     _XAdd	     dw	?
     37	0114  ????		     _CurX	     dw	?
     38	0116  ????		     _CurY	     dw	?
     39	0118  ????????		     _MouseAnimPtr   dd	?
     40	011C  ??		     _MouseVisible   db	?
     41	011D  ????		     _MouseX	     dw	?
     42	011F  ????		     _MouseY	     dw	?
     43	0121  ????		     _NewMouseX	     dw	?
     44	0123  ????		     _NewMouseY	     dw	?
     45	0125  ????????		     _CurAnimPtr     dd	?
     46	0129  0400*(??)		     _MouseSwap	     db	1024 dup (?)
     47	0529  00		     _HotSpotX	     db	0
     48	052A  00		     _HotSpotY	     db	0
     49	052B  ??		     _CurFrame	     db	?
     50	052C  ??		     _MaxFrame	     db	?
     51	052D  ??		     _DeltaX	     db	?
     52	052E  ??		     _DeltaY	     db	?
     53	052F  ????		     _TmpGran	     dw	?
     54	0531  ????		     MCurX	     dw	?
     55	0533  ????		     MCurY	     dw	?
     56	0535  ????		     MXCopy	     dw	?
     57	0537  ????		     MXAdd	     dw	?
Turbo Assembler	 Version 3.2	    03/09/00 02:20:48	    Page 2
my.asm



     58	0539  ??		     _CtrlByte	     db	?
     59	053A  ??		     _MouseDelay     db	?
     60	053B  ??		     _CurDelay	     db	?
     61	053C  ????????		     _CommonCursor   dd	?
     62	0540  40*(????)		     _SpecialArea    dw	64 dup (?)
     63	05C0  ??		     _0CIdle	     db	?
     64	05C1  ??		     _08Idle	     db	?
     65	05C2  0180*(????)	     _Areas	     dw	384 dup	(?)
     66	08C2  ????		     _LastArea	     dw	?
     67	08C4  ??		     _NAreas	     db	?
     68	08C5  ??		     _ProtTmp	     db	?
     69	08C6  0300*(??)		     _OldPalette     db	768 dup	(?)
     70	0BC6  ??		     _WriteMode	     db	?
     71	0BC7  ????		     _VMinX	     dw	?
     72	0BC9  ????		     _VMinY	     dw	?
     73	0BCB  ????		     _VMaxX	     dw	?
     74	0BCD  ????		     _VMaxY	     dw	?
     75	0BCF  ????		     _LDX	     dw	?
     76	0BD1  ????		     _LDY	     dw	?
     77	0BD3  ??		     _LDXBelow0	     db	?
     78	0BD4  ????		     _MouseIdle	     dw	?
     79	0BD6  ????????		     _EMSGet	     dd	?
     80	0BDA  ????????		     _EMSFree	     dd	?
     81	0BDE  ????????		     _EMSMap	     dd	?
     82	0BE2  ????????		     _EMSFrame	     dd	?
     83	0BE6  ????		     EMSTMP	     dw	?
     84	0BE8  ????		     EMSFrame	     dw	?
     85	0BEA  8E E8 A8 A1 AA A0	20+  Error1	     db	'Ошибка	: функция или режим не поддерживается VESA!',0Ah,0Dh,'$'
     86	      3A 20 E4 E3 AD AA	E6+
     87	      A8 EF 20 A8 AB A8	20+
     88	      E0 A5 A6 A8 AC 20	AD+
     89	      A5 20 AF AE A4 A4	A5+
     90	      E0 A6 A8 A2 A0 A5	E2+
     91	      E1 EF 20 56 45 53	41+
     92	      21 0A 0D 24
     93	0C1F  8E E8 A8 A1 AA A0	20+  Error2	     db	'Ошибка	: режим	не поддерживается модулем VX!',0Ah,0Dh,'$'
     94	      3A 20 E0 A5 A6 A8	AC+
     95	      20 AD A5 20 AF AE	A4+
     96	      A4 A5 E0 A6 A8 A2	A0+
     97	      A5 E2 E1 EF 20 AC	AE+
     98	      A4 E3 AB A5 AC 20	56+
     99	      58 21 0A 0D 24
    100	0C4E  8E E8 A8 A1 AA A0	20+  Error201	     db	'Ошибка	: драйвер мыши не найден или не	работает!',0Ah,0Dh,'$'
    101	      3A 20 A4 E0 A0 A9	A2+
    102	      A5 E0 20 AC EB E8	A8+
    103	      20 AD A5 20 AD A0	A9+
    104	      A4 A5 AD 20 A8 AB	A8+
    105	      20 AD A5 20 E0 A0	A1+
    106	      AE E2 A0 A5 E2 21	0A+
    107	      0D 24
    108	0C81  0100*(00)		     ShadowColors    db	256 dup	(0)
    109	0D81  0000		     glases1	     dw	0
    110	0D83  0000		     glases2	     dw	0
    111	0D85  00000000		     Texture	     dd	0
    112	0D89  0000		     TextLeng	     dw	0
    113	0D8B  0000		     TextHigh	     dw	0
    114	0D8D  0000		     MapStart	     dw	0
Turbo Assembler	 Version 3.2	    03/09/00 02:20:48	    Page 3
my.asm



    115	0D8F  0000		     MapBank	     dw	0
    116	0D91  0000		     XWinSize	     dw	0
    117	0D93  0000		     YWinSize	     dw	0
    118	0D95  0000		     YWinSize_	     dw	0
    119	0D97  0000		     XMap	     dw	0
    120	0D99  0000		     YMap	     dw	0
    121	0D9B  0000		     XSizeMap	     dw	0
    122	0D9D  0000		     YSizeMap	     dw	0
    123	0D9F  0000		     XDop	     dw	0
    124	0DA1  0000		     BitImage	     dw	0
    125	0DA3  0000		     List	     dw	0
    126	0DA5  0000		     FirstElem	     dw	0
    127	0DA7  0000		     CurPage	     dw	0
    128	0DA9  0000		     CurOffs	     dw	0
    129	0DAB  0000		     CurP	     dw	0
    130	0DAD  0000		     CurO	     dw	0
    131	0DAF  0100*(0000)	     SprTable	     dw	256 dup	(0)
    132	0FAF  0000		     OldDS	     dw	0
    133	0FB1  0000		     OldSI	     dw	0
    134	0FB3  0000		     OldDI	     dw	0
    135	0FB5  0000		     OldBP	     dw	0
    136	0FB7  0000		     CurXC	     dw	0
    137	0FB9  0000		     CurYC	     dw	0
    138	0FBB  0000		     CurXSize	     dw	0
    139	0FBD  0000		     CurYSize	     dw	0
    140	0FBF  0000		     XAdd_	     dw	0
    141	0FC1  0000		     XScrAdd	     dw	0
    142	0FC3  0000		     MaskAdd	     dw	0
    143	0FC5  80		     MaskOld	     db	80h
    144	0FC6  0000		     TMPX	     dw	0
    145	0FC8  0000		     TMPY	     dw	0
    146	0FCA  00		     CLEARSW	     db	0
    147	0FCB  0000		     SecondPageBank  dw	0
    148	0FCD  0000		     BankAdder	     dw	0
    149	0FCF  0000		     MouseBankAdder  dw	0
    150	0FD1  0000		     CurXPage	     dw	0
    151	0FD3  0000		     CurYPage	     dw	0
    152	0FD5  00		     VPage	     db	0
    153	0FD6  00		     APage	     db	0
    154	0FD7  0000		     EmsP1	     dw	0
    155	0FD9  0000		     EmsP2	     dw	0
    156	0FDB  0000		     EmsP3	     dw	0
    157	0FDD  0000		     EmsP4	     dw	0
    158
    159						     include vx.mac
1   160				     CheckNext	     macro
1   161						     local @@CNCReady,@@CNExit
1   162						     jc	  @@CNCReady
1   163						     or	  di,di
1   164						     jnz  @@CNExit
1   165				     @@CNCReady:     add  dx,1
1   166						     call SwitchGran
1   167				     @@CNExit:
1   168						     endm
1   169
1   170				     CheckNextM	     macro Name
1   171						     local @@CNCReady,@@CNExit
Turbo Assembler	 Version 3.2	    03/09/00 02:20:48	    Page 4
my.asm



1   172						     jc	  @@CNCReady
1   173						     or	  di,di
1   174						     jnz  @@CNExit
1   175				     @@CNCReady:     add  dx,1
1   176						     call &Name&SwitchGran
1   177				     @@CNExit:
1   178						     endm
1   179
1   180				     ErrorI	     macro ErrNum
1   181						     push ds
1   182						     push cs
1   183						     pop  ds
1   184						     mov  dx,offset Error&ErrNum
1   185						     call Error
1   186						     pop  ds
1   187						     mov  _Result,&ErrNum
1   188						     endm
1   189
1   190				     TestRegister    macro SegReg,OffsReg
1   191						     local @@Exit
1   192						     push  ax dx
1   193						     mov   ax,SegReg:[OffsReg]
1   194						     cmp   ax,SegReg:[OffsReg+6]
1   195						     jnz   @@Exit
1   196						     mov   ax,SegReg:[OffsReg+2]
1   197						     cmp   ax,SegReg:[OffsReg+8]
1   198						     jnz   @@Exit
1   199						     mov   ax,SegReg:[OffsReg]
1   200						     mov   dx,SegReg:[OffsReg+2]
1   201						     mul   dx
1   202						     add   ax,4
1   203						     adc   dx,0
1   204						     or	   dx,dx
1   205						     jnz   @@Exit
1   206						     cmp   ax,SegReg:[OffsReg+4]
1   207						     jnz   @@Exit
1   208						     add   OffsReg,6
1   209				     @@Exit:
1   210						     pop   dx ax
1   211						     endm
    212						     include cursor.asm
1   213	0FDF  00 00 00 00	     StandardCursor  db	     0,0,0,0
1   214	0FE3  2A 2A 00 00 00 00	00+  db	 42, 42,  0,  0,  0,  0,  0,  0,  0,  0,  0,  0,  0,  0,  0,  0,  0,  0,  0,  0,  0,  0,  0,+
    215	      00 00 00 00 00 00	00+  0,	 0,  0,	 0,  0,	 0,  0,	 0,  0
    216	      00 00 00 00 00 00	00+
    217	      00 00 00 00 00 00	00+
    218	      00 00 00 00
1   219	1003  2A 1A 2A 00 00 00	00+  db	 42, 26, 42,  0,  0,  0,  0,  0,  0,  0,  0,  0,  0,  0,  0,  0,  0,  0,  0,  0,  0,  0,  0,+
    220	      00 00 00 00 00 00	00+  0,	 0,  0,	 0,  0,	 0,  0,	 0,  0
    221	      00 00 00 00 00 00	00+
    222	      00 00 00 00 00 00	00+
    223	      00 00 00 00
1   224	1023  2A 1B 1A 2A 00 00	00+  db	 42, 27, 26, 42,  0,  0,  0,  0,  0,  0,  0,  0,  0,  0,  0,  0,  0,  0,  0,  0,  0,  0,  0,+
    225	      00 00 00 00 00 00	00+  0,	 0,  0,	 0,  0,	 0,  0,	 0,  0
    226	      00 00 00 00 00 00	00+
    227	      00 00 00 00 00 00	00+
    228	      00 00 00 00
Turbo Assembler	 Version 3.2	    03/09/00 02:20:48	    Page 5
my.asm



1   229	1043  2A 1B 1B 1C 2A 00	00+  db	 42, 27, 27, 28, 42,  0,  0,  0,  0,  0,  0,  0,  0,  0,  0,  0,  0,  0,  0,  0,  0,  0,  0,+
    230	      00 00 00 00 00 00	00+  0,	 0,  0,	 0,  0,	 0,  0,	 0,  0
    231	      00 00 00 00 00 00	00+
    232	      00 00 00 00 00 00	00+
    233	      00 00 00 00
1   234	1063  2A 19 1B 1C 1A 2A	00+  db	 42, 25, 27, 28, 26, 42,  0,  0,  0,  0,  0,  0,  0,  0,  0,  0,  0,  0,  0,  0,  0,  0,  0,+
    235	      00 00 00 00 00 00	00+  0,	 0,  0,	 0,  0,	 0,  0,	 0,  0
    236	      00 00 00 00 00 00	00+
    237	      00 00 00 00 00 00	00+
    238	      00 00 00 00
1   239	1083  2A 19 1B 1B 1C 1A	2A+  db	 42, 25, 27, 27, 28, 26, 42,  0,  0,  0,  0,  0,  0,  0,  0,  0,  0,  0,  0,  0,  0,  0,  0,+
    240	      00 00 00 00 00 00	00+  0,	 0,  0,	 0,  0,	 0,  0,	 0,  0
    241	      00 00 00 00 00 00	00+
    242	      00 00 00 00 00 00	00+
    243	      00 00 00 00
1   244	10A3  2A 18 19 1B 1B 1C	1A+  db	 42, 24, 25, 27, 27, 28, 26, 42,  0,  0,  0,  0,  0,  0,  0,  0,  0,  0,  0,  0,  0,  0,  0,+
    245	      2A 00 00 00 00 00	00+  0,	 0,  0,	 0,  0,	 0,  0,	 0,  0
    246	      00 00 00 00 00 00	00+
    247	      00 00 00 00 00 00	00+
    248	      00 00 00 00
1   249	10C3  2A 16 18 1B 1B 1B	1C+  db	 42, 22, 24, 27, 27, 27, 28, 26, 42,  0,  0,  0,  0,  0,  0,  0,  0,  0,  0,  0,  0,  0,  0,+
    250	      1A 2A 00 00 00 00	00+  0,	 0,  0,	 0,  0,	 0,  0,	 0,  0
    251	      00 00 00 00 00 00	00+
    252	      00 00 00 00 00 00	00+
    253	      00 00 00 00
1   254	10E3  2A 16 18 19 1B 1B	1B+  db	 42, 22, 24, 25, 27, 27, 27, 26, 26, 42,  0,  0,  0,  0,  0,  0,  0,  0,  0,  0,  0,  0,  0,+
    255	      1A 1A 2A 00 00 00	00+  0,	 0,  0,	 0,  0,	 0,  0,	 0,  0
    256	      00 00 00 00 00 00	00+
    257	      00 00 00 00 00 00	00+
    258	      00 00 00 00
1   259	1103  2A 15 16 18 19 1B	1B+  db	 42, 21, 22, 24, 25, 27, 27, 27, 26, 26, 42,  0,  0,  0,  0,  0,  0,  0,  0,  0,  0,  0,  0,+
    260	      1B 1A 1A 2A 00 00	00+  0,	 0,  0,	 0,  0,	 0,  0,	 0,  0
    261	      00 00 00 00 00 00	00+
    262	      00 00 00 00 00 00	00+
    263	      00 00 00 00
1   264	1123  2A 13 15 16 18 19	1B+  db	 42, 19, 21, 22, 24, 25, 27, 27, 27, 26, 26, 42,  0,  0,  0,  0,  0,  0,  0,  0,  0,  0,  0,+
    265	      1B 1B 1A 1A 2A 00	00+  0,	 0,  0,	 0,  0,	 0,  0,	 0,  0
    266	      00 00 00 00 00 00	00+
    267	      00 00 00 00 00 00	00+
    268	      00 00 00 00
1   269	1143  2A 13 15 16 18 19	1B+  db	 42, 19, 21, 22, 24, 25, 27, 42, 42, 42, 42, 42, 42,  0,  0,  0,  0,  0,  0,  0,  0,  0,  0,+
    270	      2A 2A 2A 2A 2A 2A	00+  0,	 0,  0,	 0,  0,	 0,  0,	 0,  0
    271	      00 00 00 00 00 00	00+
    272	      00 00 00 00 00 00	00+
    273	      00 00 00 00
1   274	1163  2A 12 13 15 2A 1B	19+  db	 42, 18, 19, 21, 42, 27, 25, 42,  0,  0,  0,  0,  0,  0,  0,  0,  0,  0,  0,  0,  0,  0,  0,+
    275	      2A 00 00 00 00 00	00+  0,	 0,  0,	 0,  0,	 0,  0,	 0,  0
    276	      00 00 00 00 00 00	00+
    277	      00 00 00 00 00 00	00+
    278	      00 00 00 00
1   279	1183  2A 12 2A 2A 2A 19	1B+  db	 42, 18, 42, 42, 42, 25, 27, 25, 42,  0,  0,  0,  0,  0,  0,  0,  0,  0,  0,  0,  0,  0,  0,+
    280	      19 2A 00 00 00 00	00+  0,	 0,  0,	 0,  0,	 0,  0,	 0,  0
    281	      00 00 00 00 00 00	00+
    282	      00 00 00 00 00 00	00+
    283	      00 00 00 00
1   284	11A3  2A 2A 00 00 00 2A	19+  db	 42, 42,  0,  0,  0, 42, 25, 27, 42,  0,  0,  0,  0,  0,  0,  0,  0,  0,  0,  0,  0,  0,  0,+
    285	      1B 2A 00 00 00 00	00+  0,	 0,  0,	 0,  0,	 0,  0,	 0,  0
Turbo Assembler	 Version 3.2	    03/09/00 02:20:48	    Page 6
my.asm



    286	      00 00 00 00 00 00	00+
    287	      00 00 00 00 00 00	00+
    288	      00 00 00 00
1   289	11C3  2A 00 00 00 00 2A	19+  db	 42,  0,  0,  0,  0, 42, 25, 27, 25, 42,  0,  0,  0,  0,  0,  0,  0,  0,  0,  0,  0,  0,  0,+
    290	      1B 19 2A 00 00 00	00+  0,	 0,  0,	 0,  0,	 0,  0,	 0,  0
    291	      00 00 00 00 00 00	00+
    292	      00 00 00 00 00 00	00+
    293	      00 00 00 00
1   294	11E3  00 00 00 00 00 00	2A+  db	  0,  0,  0,  0,  0,  0, 42, 25, 27, 42,  0,  0,  0,  0,  0,  0,  0,  0,  0,  0,  0,  0,  0,+
    295	      19 1B 2A 00 00 00	00+  0,	 0,  0,	 0,  0,	 0,  0,	 0,  0
    296	      00 00 00 00 00 00	00+
    297	      00 00 00 00 00 00	00+
    298	      00 00 00 00
1   299	1203  00 00 00 00 00 00	2A+  db	  0,  0,  0,  0,  0,  0, 42, 25, 27, 25, 42,  0,  0,  0,  0,  0,  0,  0,  0,  0,  0,  0,  0,+
    300	      19 1B 19 2A 00 00	00+  0,	 0,  0,	 0,  0,	 0,  0,	 0,  0
    301	      00 00 00 00 00 00	00+
    302	      00 00 00 00 00 00	00+
    303	      00 00 00 00
1   304	1223  00 00 00 00 00 00	00+  db	  0,  0,  0,  0,  0,  0,  0, 42, 25, 27, 42,  0,  0,  0,  0,  0,  0,  0,  0,  0,  0,  0,  0,+
    305	      2A 19 1B 2A 00 00	00+  0,	 0,  0,	 0,  0,	 0,  0,	 0,  0
    306	      00 00 00 00 00 00	00+
    307	      00 00 00 00 00 00	00+
    308	      00 00 00 00
1   309	1243  00 00 00 00 00 00	00+  db	  0,  0,  0,  0,  0,  0,  0, 42, 42, 42,  0,  0,  0,  0,  0,  0,  0,  0,  0,  0,  0,  0,  0,+
    310	      2A 2A 2A 00 00 00	00+  0,	 0,  0,	 0,  0,	 0,  0,	 0,  0
    311	      00 00 00 00 00 00	00+
    312	      00 00 00 00 00 00	00+
    313	      00 00 00 00
1   314	1263  00 00 00 00 00 00	00+  db	  0,  0,  0,  0,  0,  0,  0,  0,  0,  0,  0,  0,  0,  0,  0,  0,  0,  0,  0,  0,  0,  0,  0,+
    315	      00 00 00 00 00 00	00+  0,	 0,  0,	 0,  0,	 0,  0,	 0,  0
    316	      00 00 00 00 00 00	00+
    317	      00 00 00 00 00 00	00+
    318	      00 00 00 00
1   319	1283  00 00 00 00 00 00	00+  db	  0,  0,  0,  0,  0,  0,  0,  0,  0,  0,  0,  0,  0,  0,  0,  0,  0,  0,  0,  0,  0,  0,  0,+
    320	      00 00 00 00 00 00	00+  0,	 0,  0,	 0,  0,	 0,  0,	 0,  0
    321	      00 00 00 00 00 00	00+
    322	      00 00 00 00 00 00	00+
    323	      00 00 00 00
1   324	12A3  00 00 00 00 00 00	00+  db	  0,  0,  0,  0,  0,  0,  0,  0,  0,  0,  0,  0,  0,  0,  0,  0,  0,  0,  0,  0,  0,  0,  0,+
    325	      00 00 00 00 00 00	00+  0,	 0,  0,	 0,  0,	 0,  0,	 0,  0
    326	      00 00 00 00 00 00	00+
    327	      00 00 00 00 00 00	00+
    328	      00 00 00 00
1   329	12C3  00 00 00 00 00 00	00+  db	  0,  0,  0,  0,  0,  0,  0,  0,  0,  0,  0,  0,  0,  0,  0,  0,  0,  0,  0,  0,  0,  0,  0,+
    330	      00 00 00 00 00 00	00+  0,	 0,  0,	 0,  0,	 0,  0,	 0,  0
    331	      00 00 00 00 00 00	00+
    332	      00 00 00 00 00 00	00+
    333	      00 00 00 00
1   334	12E3  00 00 00 00 00 00	00+  db	  0,  0,  0,  0,  0,  0,  0,  0,  0,  0,  0,  0,  0,  0,  0,  0,  0,  0,  0,  0,  0,  0,  0,+
    335	      00 00 00 00 00 00	00+  0,	 0,  0,	 0,  0,	 0,  0,	 0,  0
    336	      00 00 00 00 00 00	00+
    337	      00 00 00 00 00 00	00+
    338	      00 00 00 00
1   339	1303  00 00 00 00 00 00	00+  db	  0,  0,  0,  0,  0,  0,  0,  0,  0,  0,  0,  0,  0,  0,  0,  0,  0,  0,  0,  0,  0,  0,  0,+
    340	      00 00 00 00 00 00	00+  0,	 0,  0,	 0,  0,	 0,  0,	 0,  0
    341	      00 00 00 00 00 00	00+
    342	      00 00 00 00 00 00	00+
Turbo Assembler	 Version 3.2	    03/09/00 02:20:48	    Page 7
my.asm



    343	      00 00 00 00
1   344	1323  00 00 00 00 00 00	00+  db	  0,  0,  0,  0,  0,  0,  0,  0,  0,  0,  0,  0,  0,  0,  0,  0,  0,  0,  0,  0,  0,  0,  0,+
    345	      00 00 00 00 00 00	00+  0,	 0,  0,	 0,  0,	 0,  0,	 0,  0
    346	      00 00 00 00 00 00	00+
    347	      00 00 00 00 00 00	00+
    348	      00 00 00 00
1   349	1343  00 00 00 00 00 00	00+  db	  0,  0,  0,  0,  0,  0,  0,  0,  0,  0,  0,  0,  0,  0,  0,  0,  0,  0,  0,  0,  0,  0,  0,+
    350	      00 00 00 00 00 00	00+  0,	 0,  0,	 0,  0,	 0,  0,	 0,  0
    351	      00 00 00 00 00 00	00+
    352	      00 00 00 00 00 00	00+
    353	      00 00 00 00
1   354	1363  00 00 00 00 00 00	00+  db	  0,  0,  0,  0,  0,  0,  0,  0,  0,  0,  0,  0,  0,  0,  0,  0,  0,  0,  0,  0,  0,  0,  0,+
    355	      00 00 00 00 00 00	00+  0,	 0,  0,	 0,  0,	 0,  0,	 0,  0
    356	      00 00 00 00 00 00	00+
    357	      00 00 00 00 00 00	00+
    358	      00 00 00 00
1   359	1383  00 00 00 00 00 00	00+  db	  0,  0,  0,  0,  0,  0,  0,  0,  0,  0,  0,  0,  0,  0,  0,  0,  0,  0,  0,  0,  0,  0,  0,+
    360	      00 00 00 00 00 00	00+  0,	 0,  0,	 0,  0,	 0,  0,	 0,  0
    361	      00 00 00 00 00 00	00+
    362	      00 00 00 00 00 00	00+
    363	      00 00 00 00
1   364	13A3  00 00 00 00 00 00	00+  db	  0,  0,  0,  0,  0,  0,  0,  0,  0,  0,  0,  0,  0,  0,  0,  0,  0,  0,  0,  0,  0,  0,  0,+
    365	      00 00 00 00 00 00	00+  0,	 0,  0,	 0,  0,	 0,  0,	 0,  0
    366	      00 00 00 00 00 00	00+
    367	      00 00 00 00 00 00	00+
    368	      00 00 00 00
1   369	13C3  00 00 00 00 00 00	00+  db	  0,  0,  0,  0,  0,  0,  0,  0,  0,  0,  0,  0,  0,  0,  0,  0,  0,  0,  0,  0,  0,  0,  0,+
    370	      00 00 00 00 00 00	00+  0,	 0,  0,	 0,  0,	 0,  0,	 0,  0
    371	      00 00 00 00 00 00	00+
    372	      00 00 00 00 00 00	00+
    373	      00 00 00 00
1   374
    375						     include cur.asm
1   376	13E3  00 00 10 10	     MyCursor	     db	0,0,16,16
1   377	13E7  00 00 00 00 00 00	00+  db	  0,  0,  0,  0,  0,  0,  0,  0,  0,  0,  0,  0,  0,  0,  0,  0,  0,  0,  0,  0,  0,  0,  0,+
    378	      00 00 00 00 00 00	00+  0,	 0,  0,	 0,  0,	 0,  0,	 0,  0
    379	      00 00 00 00 00 00	00+
    380	      00 00 00 00 00 00	00+
    381	      00 00 00 00
1   382	1407  00 00 00 00 00 00	00+  db	  0,  0,  0,  0,  0,  0,  0,  0,  0,  0,  0,  0,  0,  0,  0,  0,  0,  0,  0,  0,  0,  0,  0,+
    383	      00 00 00 00 00 00	00+  0,	 0,  0,	 0,  0,	 0,  0,	 0,  0
    384	      00 00 00 00 00 00	00+
    385	      00 00 00 00 00 00	00+
    386	      00 00 00 00
1   387	1427  00 00 00 00 00 00	00+  db	  0,  0,  0,  0,  0,  0,  0,  0,  0,  0,  0,  0,  0,  0,  0,  0,  0,  0,  0,  0,  0,  0,  0,+
    388	      00 00 00 00 00 00	00+  0,	 0,  0,	 0,  0,	 0,  0,	 0,  0
    389	      00 00 00 00 00 00	00+
    390	      00 00 00 00 00 00	00+
    391	      00 00 00 00
1   392	1447  00 00 00 00 00 00	00+  db	  0,  0,  0,  0,  0,  0,  0,  0,  0,  0,  0,  0, 12, 12, 12, 12, 12, 12, 12, 12, 12, 12, 12,+
    393	      00 00 00 00 00 0C	0C+  12, 12,  0,  0,  0,  0,  0,  0,  0
    394	      0C 0C 0C 0C 0C 0C	0C+
    395	      0C 0C 0C 0C 00 00	00+
    396	      00 00 00 00
1   397	1467  00 00 00 00 00 00	00+  db	  0,  0,  0,  0,  0,  0,  0,  0,  0,  0,  0,  0,  0, 12,192,192,192,192,192,192,192,192,194,+
    398	      00 00 00 00 00 00	0C+  12,  0,  0,  0,  0,  0,  0,  0,  0
    399	      C0 C0 C0 C0 C0 C0	C0+
Turbo Assembler	 Version 3.2	    03/09/00 02:20:48	    Page 8
my.asm



    400	      C0 C2 0C 00 00 00	00+
    401	      00 00 00 00
1   402	1487  00 00 00 00 00 00	00+  db	  0,  0,  0,  0,  0,  0,  0,  0,  0,  0,  0,  0,  0,  0, 12,194,192, 12, 12, 12,192,194, 12,+
    403	      00 00 00 00 00 00	00+  0,	 0,  0,	 0,  0,	 0,  0,	 0,  0
    404	      0C C2 C0 0C 0C 0C	C0+
    405	      C2 0C 00 00 00 00	00+
    406	      00 00 00 00
1   407	14A7  00 00 00 00 00 00	00+  db	  0,  0,  0,  0,  0,  0,  0,  0,  0,  0,  0, 15, 15, 15, 15, 12,194,192, 12,192,194, 12, 15,+
    408	      00 00 00 00 0F 0F	0F+  15, 15,  0,  0,  0,  0,  0,  0,  0
    409	      0F 0C C2 C0 0C C0	C2+
    410	      0C 0F 0F 0F 00 00	00+
    411	      00 00 00 00
1   412	14C7  00 00 00 00 00 00	00+  db	  0,  0,  0,  0,  0,  0,  0,  0,  0, 15, 15, 15, 15, 15, 15, 15, 12,194,194,194, 12, 15, 15,+
    413	      00 00 0F 0F 0F 0F	0F+  15, 15, 15, 15,  0,  0,  0,  0,  0
    414	      0F 0F 0C C2 C2 C2	0C+
    415	      0F 0F 0F 0F 0F 0F	00+
    416	      00 00 00 00
1   417	14E7  00 00 00 00 00 00	00+  db	  0,  0,  0,  0,  0,  0,  0,  0, 15, 15, 15, 15,  0,  0,  0,  0,  0, 12,194, 12,  0,  0,  0,+
    418	      00 0F 0F 0F 0F 00	00+  0,	15, 15,	15, 15,	 0,  0,	 0,  0
    419	      00 00 00 0C C2 0C	00+
    420	      00 00 00 0F 0F 0F	0F+
    421	      00 00 00 00
1   422	1507  00 00 00 00 00 00	00+  db	  0,  0,  0,  0,  0,  0,  0, 15, 15, 15,  0,  0,  0,  0,  0,  0,  0,  0, 12,  0,  0,  0,  0,+
    423	      0F 0F 0F 00 00 00	00+  0,	 0,  0,	15, 15,	15,  0,	 0,  0
    424	      00 00 00 00 0C 00	00+
    425	      00 00 00 00 00 0F	0F+
    426	      0F 00 00 00
1   427	1527  00 00 00 00 00 00	0F+  db	  0,  0,  0,  0,  0,  0, 15, 15, 15,  0,  0,  0,  0,  0,  0,  0,  0,  0,  0,  0,  0,  0,  0,+
    428	      0F 0F 00 00 00 00	00+  0,	 0,  0,	 0, 15,	15, 15,	 0,  0
    429	      00 00 00 00 00 00	00+
    430	      00 00 00 00 00 00	0F+
    431	      0F 0F 00 00
1   432	1547  00 00 00 00 00 0F	0F+  db	  0,  0,  0,  0,  0, 15, 15, 15,  0,  0,  0,  0,  0,  0,  0,  0,  0,  0,  0,  0,  0,  0,  0,+
    433	      0F 00 00 00 00 00	00+  0,	 0,  0,	 0,  0,	15, 15,	15,  0
    434	      00 00 00 00 00 00	00+
    435	      00 00 00 00 00 00	00+
    436	      0F 0F 0F 00
1   437	1567  00 00 00 0C 0C 0F	0F+  db	  0,  0,  0, 12, 12, 15, 15,  0,  0,  0,  0,  0,  0,  0,  0,  0,  0,  0,  0,  0,  0,  0,  0,+
    438	      00 00 00 00 00 00	00+  0,	 0,  0,	 0,  0,	 0, 15,	15, 12
    439	      00 00 00 00 00 00	00+
    440	      00 00 00 00 00 00	00+
    441	      00 0F 0F 0C
1   442	1587  00 00 00 0C 0C 0C	0F+  db	  0,  0,  0, 12, 12, 12, 15,  0,  0,  0,  0,  0,  0,  0,  0,  0,  0,  0,  0,  0,  0,  0,  0,+
    443	      00 00 00 00 00 00	00+  0,	 0,  0,	 0,  0,	 0, 15,	12, 12
    444	      00 00 00 00 00 00	00+
    445	      00 00 00 00 00 00	00+
    446	      00 0F 0C 0C
1   447	15A7  00 00 00 0C C0 C3	0C+  db	  0,  0,  0, 12,192,195, 12,  0,  0,  0,  0,  0,  0,  0,  0,  0,  0,  0,  0,  0,  0,  0,  0,+
    448	      00 00 00 00 00 00	00+  0,	 0,  0,	 0,  0,	 0, 12,192, 12
    449	      00 00 00 00 00 00	00+
    450	      00 00 00 00 00 00	00+
    451	      00 0C C0 0C
1   452	15C7  00 00 00 0C C0 C0	C3+  db	  0,  0,  0, 12,192,192,195, 12,  0,  0,  0,  0,  0,  0,  0,  0,  0,  0,  0,  0,  0,  0,  0,+
    453	      0C 00 00 00 00 00	00+  0,	 0,  0,	 0,  0,	12,192,192, 12
    454	      00 00 00 00 00 00	00+
    455	      00 00 00 00 00 00	00+
    456	      0C C0 C0 0C
Turbo Assembler	 Version 3.2	    03/09/00 02:20:48	    Page 9
my.asm



1   457	15E7  00 00 00 0C C0 C0	C0+  db	  0,  0,  0, 12,192,192,192,195, 12,  0,  0,  0,  0,  0,  0,  0,  0,  0,  0,  0,  0,  0,  0,+
    458	      C3 0C 00 00 00 00	00+  0,	 0,  0,	 0, 12,192,192,192, 12
    459	      00 00 00 00 00 00	00+
    460	      00 00 00 00 00 00	0C+
    461	      C0 C0 C0 0C
1   462	1607  00 00 00 0C C0 0C	C0+  db	  0,  0,  0, 12,192, 12,192,192,195, 12,  0,  0,  0,  0,  0,  0,  0,  0,  0,  0,  0,  0,  0,+
    463	      C0 C3 0C 00 00 00	00+  0,	 0,  0,	12,192,192, 12,192, 12
    464	      00 00 00 00 00 00	00+
    465	      00 00 00 00 00 0C	C0+
    466	      C0 0C C0 0C
1   467	1627  00 00 00 0C C0 0C	0C+  db	  0,  0,  0, 12,192, 12, 12,192,192,195, 12,  0,  0,  0,  0,  0,  0,  0,  0,  0,  0,  0,  0,+
    468	      C0 C0 C3 0C 00 00	00+  0,	 0, 12,192,192,	12, 12,192, 12
    469	      00 00 00 00 00 00	00+
    470	      00 00 00 00 0C C0	C0+
    471	      0C 0C C0 0C
1   472	1647  00 00 00 0C C0 0C	C0+  db	  0,  0,  0, 12,192, 12,192,192,195, 12,  0,  0,  0,  0,  0,  0,  0,  0,  0,  0,  0,  0,  0,+
    473	      C0 C3 0C 00 00 00	00+  0,	 0,  0,	12,192,192, 12,192, 12
    474	      00 00 00 00 00 00	00+
    475	      00 00 00 00 00 0C	C0+
    476	      C0 0C C0 0C
1   477	1667  00 00 00 0C C0 C0	C2+  db	  0,  0,  0, 12,192,192,194,195, 12,  0,  0,  0,  0,  0,  0,  0,  0,  0,  0,  0,  0,  0,  0,+
    478	      C3 0C 00 00 00 00	00+  0,	 0,  0,	 0, 12,192,192,192, 12
    479	      00 00 00 00 00 00	00+
    480	      00 00 00 00 00 00	0C+
    481	      C0 C0 C0 0C
1   482	1687  00 00 00 0C C0 C2	C3+  db	  0,  0,  0, 12,192,194,195, 12,  0,  0,  0,  0,  0,  0,  0,  0,  0,  0,  0,  0,  0,  0,  0,+
    483	      0C 00 00 00 00 00	00+  0,	 0,  0,	 0,  0,	12,192,192, 12
    484	      00 00 00 00 00 00	00+
    485	      00 00 00 00 00 00	00+
    486	      0C C0 C0 0C
1   487	16A7  00 00 00 0C C0 C3	0C+  db	  0,  0,  0, 12,192,195, 12,  0,  0,  0,  0,  0,  0,  0,  0,  0,  0,  0,  0,  0,  0,  0,  0,+
    488	      00 00 00 00 00 00	00+  0,	 0,  0,	 0,  0,	 0, 12,192, 12
    489	      00 00 00 00 00 00	00+
    490	      00 00 00 00 00 00	00+
    491	      00 0C C0 0C
1   492	16C7  00 00 00 0C 0C 0C	0F+  db	  0,  0,  0, 12, 12, 12, 15, 15,  0,  0,  0,  0,  0,  0,  0,  0,  0,  0,  0,  0,  0,  0,  0,+
    493	      0F 00 00 00 00 00	00+  0,	 0,  0,	 0,  0,	 0, 15,	12, 12
    494	      00 00 00 00 00 00	00+
    495	      00 00 00 00 00 00	00+
    496	      00 0F 0C 0C
1   497	16E7  00 00 00 00 00 00	0F+  db	  0,  0,  0,  0,  0,  0, 15, 15, 15,  0,  0,  0,  0,  0,  0,  0,  0,  0,  0,  0,  0,  0,  0,+
    498	      0F 0F 00 00 00 00	00+  0,	 0,  0,	 0,  0,	15, 15,	15, 12
    499	      00 00 00 00 00 00	00+
    500	      00 00 00 00 00 00	00+
    501	      0F 0F 0F 0C
1   502	1707  00 00 00 00 00 00	00+  db	  0,  0,  0,  0,  0,  0,  0, 15, 15, 15,  0,  0,  0,  0,  0,  0,  0,  0, 12,  0,  0,  0,  0,+
    503	      0F 0F 0F 00 00 00	00+  0,	 0,  0,	 0, 15,	15, 15,	 0,  0
    504	      00 00 00 00 0C 00	00+
    505	      00 00 00 00 00 00	0F+
    506	      0F 0F 00 00
1   507	1727  00 00 00 00 00 00	00+  db	  0,  0,  0,  0,  0,  0,  0,  0, 15, 15, 15,  0,  0,  0,  0,  0,  0, 12,194, 12,  0,  0,  0,+
    508	      00 0F 0F 0F 00 00	00+  0,	 0,  0,	15, 15,	15,  0,	 0,  0
    509	      00 00 00 0C C2 0C	00+
    510	      00 00 00 00 00 0F	0F+
    511	      0F 00 00 00
1   512	1747  00 00 00 00 00 00	00+  db	  0,  0,  0,  0,  0,  0,  0,  0,  0, 15, 15, 15, 15,  0,  0,  0, 12,  4,192,  4, 12,  0,  0,+
    513	      00 00 0F 0F 0F 0F	00+  0,	15, 15,	15, 15,	 0,  0,	 0,  0
Turbo Assembler	 Version 3.2	    03/09/00 02:20:48	    Page 10
my.asm



    514	      00 00 0C 04 C0 04	0C+
    515	      00 00 00 0F 0F 0F	0F+
    516	      00 00 00 00
1   517	1767  00 00 00 00 00 00	00+  db	  0,  0,  0,  0,  0,  0,  0,  0,  0,  0, 15, 15, 15, 15, 15, 12,194,192, 12,192,194, 12, 15,+
    518	      00 00 00 0F 0F 0F	0F+  15, 15, 15, 15,  0,  0,  0,  0,  0
    519	      0F 0C C2 C0 0C C0	C2+
    520	      0C 0F 0F 0F 0F 0F	00+
    521	      00 00 00 00
1   522	1787  00 00 00 00 00 00	00+  db	  0,  0,  0,  0,  0,  0,  0,  0,  0,  0,  0, 15, 15, 15, 12,  4,192, 12, 12, 12,192,194, 12,+
    523	      00 00 00 00 0F 0F	0F+  15, 15, 15,  0,  0,  0,  0,  0,  0
    524	      0C 04 C0 0C 0C 0C	C0+
    525	      C2 0C 0F 0F 0F 00	00+
    526	      00 00 00 00
1   527	17A7  00 00 00 00 00 00	00+  db	  0,  0,  0,  0,  0,  0,  0,  0,  0,  0,  0,  0,  0, 12,  4,  4,192,192,192,192,192,  4,195,+
    528	      00 00 00 00 00 00	0C+  12,  0,  0,  0,  0,  0,  0,  0,  0
    529	      04 04 C0 C0 C0 C0	C0+
    530	      04 C3 0C 00 00 00	00+
    531	      00 00 00 00
1   532	17C7  00 00 00 00 00 00	00+  db	  0,  0,  0,  0,  0,  0,  0,  0,  0,  0,  0,  0,  0, 12, 12, 12, 12, 12, 12, 12, 12, 12, 12,+
    533	      00 00 00 00 00 00	0C+  12,  0,  0,  0,  0,  0,  0,  0,  0
    534	      0C 0C 0C 0C 0C 0C	0C+
    535	      0C 0C 0C 00 00 00	00+
    536	      00 00 00 00
1   537
    538						     include cur2.asm
1   539	17E7  00 00 10 10	     MyCursor2	     db	0,0,16,16
1   540	17EB  00 00 00 00 00 00	00+  db	  0,  0,  0,  0,  0,  0,  0,  0,  0,  0,  0,  0,  0,  0,  0,  0,  0,  0,  0,  0,  0,  0,  0,+
    541	      00 00 00 00 00 00	00+  0,	 0,  0,	 0,  0,	 0,  0,	 0,  0
    542	      00 00 00 00 00 00	00+
    543	      00 00 00 00 00 00	00+
    544	      00 00 00 00
1   545	180B  00 00 00 00 00 00	00+  db	  0,  0,  0,  0,  0,  0,  0,  0,  0,  0,  0,  0,  0,  0,  0,  0,  0,  0,  0,  0,  0,  0,  0,+
    546	      00 00 00 00 00 00	00+  0,	 0,  0,	 0,  0,	 0,  0,	 0,  0
    547	      00 00 00 00 00 00	00+
    548	      00 00 00 00 00 00	00+
    549	      00 00 00 00
1   550	182B  00 00 00 00 00 00	00+  db	  0,  0,  0,  0,  0,  0,  0,  0,  0,  0,  0,  0,  0,  0,  0,  0,  0,  0,  0,  0,  0,  0,  0,+
    551	      00 00 00 00 00 00	00+  0,	 0,  0,	 0,  0,	 0,  0,	 0,  0
    552	      00 00 00 00 00 00	00+
    553	      00 00 00 00 00 00	00+
    554	      00 00 00 00
1   555	184B  00 00 00 00 00 00	00+  db	  0,  0,  0,  0,  0,  0,  0,  0,  0,  0,  0,  0, 77, 77, 77, 77, 77, 77, 77, 77, 77, 77, 77,+
    556	      00 00 00 00 00 4D	4D+  77, 77,  0,  0,  0,  0,  0,  0,  0
    557	      4D 4D 4D 4D 4D 4D	4D+
    558	      4D 4D 4D 4D 00 00	00+
    559	      00 00 00 00
1   560	186B  00 00 00 00 00 00	00+  db	  0,  0,  0,  0,  0,  0,  0,  0,  0,  0,  0,  0,  0, 77, 79, 79, 79, 79, 79, 79, 79, 79, 79,+
    561	      00 00 00 00 00 00	4D+  77,  0,  0,  0,  0,  0,  0,  0,  0
    562	      4F 4F 4F 4F 4F 4F	4F+
    563	      4F 4F 4D 00 00 00	00+
    564	      00 00 00 00
1   565	188B  00 00 00 00 00 00	00+  db	  0,  0,  0,  0,  0,  0,  0,  0,  0,  0,  0,  0,  0,  0, 77, 79, 79, 73, 73, 73, 79, 79, 77,+
    566	      00 00 00 00 00 00	00+  0,	 0,  0,	 0,  0,	 0,  0,	 0,  0
    567	      4D 4F 4F 49 49 49	4F+
    568	      4F 4D 00 00 00 00	00+
    569	      00 00 00 00
1   570	18AB  00 00 00 00 00 00	00+  db	  0,  0,  0,  0,  0,  0,  0,  0,  0,  0,  0, 15, 15, 15, 15, 77, 79, 79, 73, 79, 79, 77, 15,+
Turbo Assembler	 Version 3.2	    03/09/00 02:20:48	    Page 11
my.asm



    571	      00 00 00 00 0F 0F	0F+  15, 15,  0,  0,  0,  0,  0,  0,  0
    572	      0F 4D 4F 4F 49 4F	4F+
    573	      4D 0F 0F 0F 00 00	00+
    574	      00 00 00 00
1   575	18CB  00 00 00 00 00 00	00+  db	  0,  0,  0,  0,  0,  0,  0,  0,  0, 15, 15, 15, 15, 15, 15, 15, 77, 79, 79, 79, 77, 15, 15,+
    576	      00 00 0F 0F 0F 0F	0F+  15, 15, 15, 15,  0,  0,  0,  0,  0
    577	      0F 0F 4D 4F 4F 4F	4D+
    578	      0F 0F 0F 0F 0F 0F	00+
    579	      00 00 00 00
1   580	18EB  00 00 00 00 00 00	00+  db	  0,  0,  0,  0,  0,  0,  0,  0, 15, 15, 15, 15,  0,  0,  0,  0,  0, 77, 79, 77,  0,  0,  0,+
    581	      00 0F 0F 0F 0F 00	00+  0,	15, 15,	15, 15,	 0,  0,	 0,  0
    582	      00 00 00 4D 4F 4D	00+
    583	      00 00 00 0F 0F 0F	0F+
    584	      00 00 00 00
1   585	190B  00 00 00 00 00 00	00+  db	  0,  0,  0,  0,  0,  0,  0, 15, 15, 15,  0,  0,  0,  0,  0,  0,  0,  0, 77,  0,  0,  0,  0,+
    586	      0F 0F 0F 00 00 00	00+  0,	 0,  0,	15, 15,	15,  0,	 0,  0
    587	      00 00 00 00 4D 00	00+
    588	      00 00 00 00 00 0F	0F+
    589	      0F 00 00 00
1   590	192B  00 00 00 00 00 00	0F+  db	  0,  0,  0,  0,  0,  0, 15, 15, 15,  0,  0,  0,  0,  0,  0,  0,  0,  0,  0,  0,  0,  0,  0,+
    591	      0F 0F 00 00 00 00	00+  0,	 0,  0,	 0, 15,	15, 15,	 0,  0
    592	      00 00 00 00 00 00	00+
    593	      00 00 00 00 00 00	0F+
    594	      0F 0F 00 00
1   595	194B  00 00 00 00 00 0F	0F+  db	  0,  0,  0,  0,  0, 15, 15, 15,  0,  0,  0,  0,  0,  0,  0,  0,  0,  0,  0,  0,  0,  0,  0,+
    596	      0F 00 00 00 00 00	00+  0,	 0,  0,	 0,  0,	15, 15,	15,  0
    597	      00 00 00 00 00 00	00+
    598	      00 00 00 00 00 00	00+
    599	      0F 0F 0F 00
1   600	196B  00 00 00 4D 4D 0F	0F+  db	  0,  0,  0, 77, 77, 15, 15,  0,  0,  0,  0,  0,  0,  0,  0,  0,  0,  0,  0,  0,  0,  0,  0,+
    601	      00 00 00 00 00 00	00+  0,	 0,  0,	 0,  0,	 0, 15,	15, 77
    602	      00 00 00 00 00 00	00+
    603	      00 00 00 00 00 00	00+
    604	      00 0F 0F 4D
1   605	198B  00 00 00 4D 4D 4D	0F+  db	  0,  0,  0, 77, 77, 77, 15,  0,  0,  0,  0,  0,  0,  0,  0,  0,  0,  0,  0,  0,  0,  0,  0,+
    606	      00 00 00 00 00 00	00+  0,	 0,  0,	 0,  0,	 0, 15,	77, 77
    607	      00 00 00 00 00 00	00+
    608	      00 00 00 00 00 00	00+
    609	      00 0F 4D 4D
1   610	19AB  00 00 00 4D 52 4F	4D+  db	  0,  0,  0, 77, 82, 79, 77,  0,  0,  0,  0,  0,  0,  0,  0,  0,  0,  0,  0,  0,  0,  0,  0,+
    611	      00 00 00 00 00 00	00+  0,	 0,  0,	 0,  0,	 0, 77,	79, 77
    612	      00 00 00 00 00 00	00+
    613	      00 00 00 00 00 00	00+
    614	      00 4D 4F 4D
1   615	19CB  00 00 00 4D 52 52	4F+  db	  0,  0,  0, 77, 82, 82, 79, 77,  0,  0,  0,  0,  0,  0,  0,  0,  0,  0,  0,  0,  0,  0,  0,+
    616	      4D 00 00 00 00 00	00+  0,	 0,  0,	 0,  0,	77, 79,	79, 77
    617	      00 00 00 00 00 00	00+
    618	      00 00 00 00 00 00	00+
    619	      4D 4F 4F 4D
1   620	19EB  00 00 00 4D 52 52	52+  db	  0,  0,  0, 77, 82, 82, 82, 79, 77,  0,  0,  0,  0,  0,  0,  0,  0,  0,  0,  0,  0,  0,  0,+
    621	      4F 4D 00 00 00 00	00+  0,	 0,  0,	 0, 77,	79, 79,	79, 77
    622	      00 00 00 00 00 00	00+
    623	      00 00 00 00 00 00	4D+
    624	      4F 4F 4F 4D
1   625	1A0B  00 00 00 4D 52 49	52+  db	  0,  0,  0, 77, 82, 73, 82, 82, 79, 77,  0,  0,  0,  0,  0,  0,  0,  0,  0,  0,  0,  0,  0,+
    626	      52 4F 4D 00 00 00	00+  0,	 0,  0,	77, 79,	79, 73,	79, 77
    627	      00 00 00 00 00 00	00+
Turbo Assembler	 Version 3.2	    03/09/00 02:20:48	    Page 12
my.asm



    628	      00 00 00 00 00 4D	4F+
    629	      4F 49 4F 4D
1   630	1A2B  00 00 00 4D 52 49	49+  db	  0,  0,  0, 77, 82, 73, 73, 82, 82, 79, 77,  0,  0,  0,  0,  0,  0,  0,  0,  0,  0,  0,  0,+
    631	      52 52 4F 4D 00 00	00+  0,	 0, 77,	79, 79,	73, 73,	79, 77
    632	      00 00 00 00 00 00	00+
    633	      00 00 00 00 4D 4F	4F+
    634	      49 49 4F 4D
1   635	1A4B  00 00 00 4D 52 49	52+  db	  0,  0,  0, 77, 82, 73, 82, 82, 79, 77,  0,  0,  0,  0,  0,  0,  0,  0,  0,  0,  0,  0,  0,+
    636	      52 4F 4D 00 00 00	00+  0,	 0,  0,	77, 79,	79, 73,	79, 77
    637	      00 00 00 00 00 00	00+
    638	      00 00 00 00 00 4D	4F+
    639	      4F 49 4F 4D
1   640	1A6B  00 00 00 4D 52 52	4F+  db	  0,  0,  0, 77, 82, 82, 79, 79, 77,  0,  0,  0,  0,  0,  0,  0,  0,  0,  0,  0,  0,  0,  0,+
    641	      4F 4D 00 00 00 00	00+  0,	 0,  0,	 0, 77,	79, 79,	79, 77
    642	      00 00 00 00 00 00	00+
    643	      00 00 00 00 00 00	4D+
    644	      4F 4F 4F 4D
1   645	1A8B  00 00 00 4D 52 52	4F+  db	  0,  0,  0, 77, 82, 82, 79, 77,  0,  0,  0,  0,  0,  0,  0,  0,  0,  0,  0,  0,  0,  0,  0,+
    646	      4D 00 00 00 00 00	00+  0,	 0,  0,	 0,  0,	77, 79,	79, 77
    647	      00 00 00 00 00 00	00+
    648	      00 00 00 00 00 00	00+
    649	      4D 4F 4F 4D
1   650	1AAB  00 00 00 4D 52 4F	4D+  db	  0,  0,  0, 77, 82, 79, 77,  0,  0,  0,  0,  0,  0,  0,  0,  0,  0,  0,  0,  0,  0,  0,  0,+
    651	      00 00 00 00 00 00	00+  0,	 0,  0,	 0,  0,	 0, 77,	79, 77
    652	      00 00 00 00 00 00	00+
    653	      00 00 00 00 00 00	00+
    654	      00 4D 4F 4D
1   655	1ACB  00 00 00 4D 4D 4D	0F+  db	  0,  0,  0, 77, 77, 77, 15, 15,  0,  0,  0,  0,  0,  0,  0,  0,  0,  0,  0,  0,  0,  0,  0,+
    656	      0F 00 00 00 00 00	00+  0,	 0,  0,	 0,  0,	 0, 15,	77, 77
    657	      00 00 00 00 00 00	00+
    658	      00 00 00 00 00 00	00+
    659	      00 0F 4D 4D
1   660	1AEB  00 00 00 00 00 00	0F+  db	  0,  0,  0,  0,  0,  0, 15, 15, 15,  0,  0,  0,  0,  0,  0,  0,  0,  0,  0,  0,  0,  0,  0,+
    661	      0F 0F 00 00 00 00	00+  0,	 0,  0,	 0,  0,	15, 15,	15, 77
    662	      00 00 00 00 00 00	00+
    663	      00 00 00 00 00 00	00+
    664	      0F 0F 0F 4D
1   665	1B0B  00 00 00 00 00 00	00+  db	  0,  0,  0,  0,  0,  0,  0, 15, 15, 15,  0,  0,  0,  0,  0,  0,  0,  0, 77,  0,  0,  0,  0,+
    666	      0F 0F 0F 00 00 00	00+  0,	 0,  0,	 0, 15,	15, 15,	 0,  0
    667	      00 00 00 00 4D 00	00+
    668	      00 00 00 00 00 00	0F+
    669	      0F 0F 00 00
1   670	1B2B  00 00 00 00 00 00	00+  db	  0,  0,  0,  0,  0,  0,  0,  0, 15, 15, 15,  0,  0,  0,  0,  0,  0, 77, 82, 77,  0,  0,  0,+
    671	      00 0F 0F 0F 00 00	00+  0,	 0,  0,	15, 15,	15,  0,	 0,  0
    672	      00 00 00 4D 52 4D	00+
    673	      00 00 00 00 00 0F	0F+
    674	      0F 00 00 00
1   675	1B4B  00 00 00 00 00 00	00+  db	  0,  0,  0,  0,  0,  0,  0,  0,  0, 15, 15, 15, 15,  0,  0,  0, 77, 82, 82, 82, 82,  0,  0,+
    676	      00 00 0F 0F 0F 0F	00+  0,	15, 15,	15, 15,	 0,  0,	 0,  0
    677	      00 00 4D 52 52 52	52+
    678	      00 00 00 0F 0F 0F	0F+
    679	      00 00 00 00
1   680	1B6B  00 00 00 00 00 00	00+  db	  0,  0,  0,  0,  0,  0,  0,  0,  0,  0, 15, 15, 15, 15, 15, 77, 82, 82, 73, 82, 82, 82, 15,+
    681	      00 00 00 0F 0F 0F	0F+  15, 15, 15, 15,  0,  0,  0,  0,  0
    682	      0F 4D 52 52 49 52	52+
    683	      52 0F 0F 0F 0F 0F	00+
    684	      00 00 00 00
Turbo Assembler	 Version 3.2	    03/09/00 02:20:48	    Page 13
my.asm



1   685	1B8B  00 00 00 00 00 00	00+  db	  0,  0,  0,  0,  0,  0,  0,  0,  0,  0,  0, 15, 15, 15, 12, 82, 82, 73, 73, 73, 82, 82, 77,+
    686	      00 00 00 00 0F 0F	0F+  15, 15, 15,  0,  0,  0,  0,  0,  0
    687	      0C 52 52 49 49 49	52+
    688	      52 4D 0F 0F 0F 00	00+
    689	      00 00 00 00
1   690	1BAB  00 00 00 00 00 00	00+  db	  0,  0,  0,  0,  0,  0,  0,  0,  0,  0,  0,  0,  0, 77, 82, 82, 82, 82, 82, 82, 82, 82, 82,+
    691	      00 00 00 00 00 00	4D+  77,  0,  0,  0,  0,  0,  0,  0,  0
    692	      52 52 52 52 52 52	52+
    693	      52 52 4D 00 00 00	00+
    694	      00 00 00 00
1   695	1BCB  00 00 00 00 00 00	00+  db	  0,  0,  0,  0,  0,  0,  0,  0,  0,  0,  0,  0,  0, 77, 77, 77, 77, 77, 77, 77, 77, 77, 77,+
    696	      00 00 00 00 00 00	4D+  77,  0,  0,  0,  0,  0,  0,  0,  0
    697	      4D 4D 4D 4D 4D 4D	4D+
    698	      4D 4D 4D 00 00 00	00+
    699	      00 00 00 00
1   700
    701						     include Hand.asm
1   702	1BEB  00 00 10 10	     Hand    db	0,0,16,16
1   703	1BEF  00 00 00 00 00 00	00+  db	  0,  0,  0,  0,  0,  0,  0,  0,  0,  0,  0,  0,  0,  0,  0,  0,  0,  0,  0,  0,  0,  0,  0,+
    704	      00 00 00 00 00 00	00+  0,	 0,  0,	 0,  0,	 0,  0,	 0,  0
    705	      00 00 00 00 00 00	00+
    706	      00 00 00 00 00 00	00+
    707	      00 00 00 00
1   708	1C0F  00 00 00 00 00 00	00+  db	  0,  0,  0,  0,  0,  0,  0,  0,  0,  0,  0,  0,  0,  0,  0,  0,  0,  0,  0,  0,  0,  0,  0,+
    709	      00 00 00 00 00 00	00+  0,	 0,  0,	 0,  0,	 0,  0,	 0,  0
    710	      00 00 00 00 00 00	00+
    711	      00 00 00 00 00 00	00+
    712	      00 00 00 00
1   713	1C2F  00 00 00 00 00 00	00+  db	  0,  0,  0,  0,  0,  0,  0,  0,  0,  0,  0,  0,  0,  0,  0,  0, 15, 15,  0,  0,  0,  0, 15,+
    714	      00 00 00 00 00 00	00+  15,  0,  0,  0,  0,  0,  0,  0,  0
    715	      00 00 0F 0F 00 00	00+
    716	      00 0F 0F 00 00 00	00+
    717	      00 00 00 00
1   718	1C4F  00 00 00 00 00 00	00+  db	  0,  0,  0,  0,  0,  0,  0,  0,  0,  0,  0,  0,  0,  0,  0, 15, 15, 15, 15, 27,  0, 15, 15,+
    719	      00 00 00 00 00 00	00+  15, 15, 27,  0,  0,  0,  0,  0,  0
    720	      00 0F 0F 0F 0F 1B	00+
    721	      0F 0F 0F 0F 1B 00	00+
    722	      00 00 00 00
1   723	1C6F  00 00 00 00 00 00	00+  db	  0,  0,  0,  0,  0,  0,  0,  0,  0,  0, 15, 15,  0,  0,  0, 15, 15, 15, 15, 27,  0, 15, 15,+
    724	      00 00 00 0F 0F 00	00+  15, 15, 27,  0,  0,  0,  0,  0,  0
    725	      00 0F 0F 0F 0F 1B	00+
    726	      0F 0F 0F 0F 1B 00	00+
    727	      00 00 00 00
1   728	1C8F  00 00 00 00 00 00	00+  db	  0,  0,  0,  0,  0,  0,  0,  0,  0, 15, 15, 15, 15, 27,  0, 15, 15, 15, 15, 27,  0, 15, 15,+
    729	      00 00 0F 0F 0F 0F	1B+  15, 15, 27,  0,  0, 15, 15,  0,  0
    730	      00 0F 0F 0F 0F 1B	00+
    731	      0F 0F 0F 0F 1B 00	00+
    732	      0F 0F 00 00
1   733	1CAF  00 00 00 00 00 00	00+  db	  0,  0,  0,  0,  0,  0,  0,  0,  0, 15, 15, 15, 15, 27,  0, 15, 15, 15, 15, 27,  0, 15, 15,+
    734	      00 00 0F 0F 0F 0F	1B+  15, 15, 27,  0, 15, 15, 15, 15, 27
    735	      00 0F 0F 0F 0F 1B	00+
    736	      0F 0F 0F 0F 1B 00	0F+
    737	      0F 0F 0F 1B
1   738	1CCF  00 00 00 00 00 00	00+  db	  0,  0,  0,  0,  0,  0,  0,  0,  0, 15, 15, 15, 15, 27,  0, 15, 15, 15, 15, 27,  0, 15, 15,+
    739	      00 00 0F 0F 0F 0F	1B+  15, 15, 27,  0, 15, 15, 15, 15, 27
    740	      00 0F 0F 0F 0F 1B	00+
    741	      0F 0F 0F 0F 1B 00	0F+
Turbo Assembler	 Version 3.2	    03/09/00 02:20:48	    Page 14
my.asm



    742	      0F 0F 0F 1B
1   743	1CEF  00 00 00 00 00 00	00+  db	  0,  0,  0,  0,  0,  0,  0,  0,  0, 15, 15, 15, 15, 27,  0, 15, 15, 15, 15, 27,  0, 15, 15,+
    744	      00 00 0F 0F 0F 0F	1B+  15, 15, 27,  0, 15, 15, 15, 15, 27
    745	      00 0F 0F 0F 0F 1B	00+
    746	      0F 0F 0F 0F 1B 00	0F+
    747	      0F 0F 0F 1B
1   748	1D0F  00 00 00 00 00 00	00+  db	  0,  0,  0,  0,  0,  0,  0,  0,  0, 15, 15, 15, 15, 27,  0, 15, 15, 15, 15, 27,  0, 15, 15,+
    749	      00 00 0F 0F 0F 0F	1B+  15, 15, 27,  0, 15, 15, 15, 15, 27
    750	      00 0F 0F 0F 0F 1B	00+
    751	      0F 0F 0F 0F 1B 00	0F+
    752	      0F 0F 0F 1B
1   753	1D2F  00 00 00 00 00 00	00+  db	  0,  0,  0,  0,  0,  0,  0,  0,  0, 15, 15, 15, 15, 27,  0, 15, 15, 15, 15, 27,  0, 15, 15,+
    754	      00 00 0F 0F 0F 0F	1B+  15, 15, 27,  0, 15, 15, 15, 15, 27
    755	      00 0F 0F 0F 0F 1B	00+
    756	      0F 0F 0F 0F 1B 00	0F+
    757	      0F 0F 0F 1B
1   758	1D4F  00 00 00 00 0F 0F	00+  db	  0,  0,  0,  0, 15, 15,  0,  0,  0, 15, 15, 15, 15, 27,  0, 15, 15, 15, 15, 27,  0, 15, 15,+
    759	      00 00 0F 0F 0F 0F	1B+  15, 15, 27,  0, 15, 15, 15, 15, 27
    760	      00 0F 0F 0F 0F 1B	00+
    761	      0F 0F 0F 0F 1B 00	0F+
    762	      0F 0F 0F 1B
1   763	1D6F  00 00 00 0F 0F 0F	0F+  db	  0,  0,  0, 15, 15, 15, 15, 28,  0, 15, 15, 15, 15, 27,  0, 15, 15, 15, 15, 27,  0, 15, 15,+
    764	      1C 00 0F 0F 0F 0F	1B+  15, 15, 27,  0, 15, 15, 15, 15, 27
    765	      00 0F 0F 0F 0F 1B	00+
    766	      0F 0F 0F 0F 1B 00	0F+
    767	      0F 0F 0F 1B
1   768	1D8F  00 00 00 0F 0F 0F	0F+  db	  0,  0,  0, 15, 15, 15, 15, 28,  0, 15, 15, 15, 15, 27,  0, 15, 15, 15, 15, 27,  0, 15, 15,+
    769	      1C 00 0F 0F 0F 0F	1B+  15, 15, 27,  0, 15, 15, 15, 15, 27
    770	      00 0F 0F 0F 0F 1B	00+
    771	      0F 0F 0F 0F 1B 00	0F+
    772	      0F 0F 0F 1B
1   773	1DAF  00 00 00 0F 0F 0F	0F+  db	  0,  0,  0, 15, 15, 15, 15, 28,  0, 15, 15, 15, 15, 27,  0, 15, 15, 15, 15, 27,  0, 15, 15,+
    774	      1C 00 0F 0F 0F 0F	1B+  15, 15, 27,  0, 15, 15, 15, 15, 27
    775	      00 0F 0F 0F 0F 1B	00+
    776	      0F 0F 0F 0F 1B 00	0F+
    777	      0F 0F 0F 1B
1   778	1DCF  00 00 00 0F 0F 0F	0F+  db	  0,  0,  0, 15, 15, 15, 15, 28,  0, 15, 15, 15, 15, 27,  0, 15, 15, 15, 15, 27,  0, 15, 15,+
    779	      1C 00 0F 0F 0F 0F	1B+  15, 15, 27,  0, 15, 15, 15, 15, 27
    780	      00 0F 0F 0F 0F 1B	00+
    781	      0F 0F 0F 0F 1B 00	0F+
    782	      0F 0F 0F 1B
1   783	1DEF  00 00 00 0F 0F 0F	0F+  db	  0,  0,  0, 15, 15, 15, 15, 28,  0, 15, 15, 15, 15, 27,  0, 15, 15, 15, 15, 27,  0, 15, 15,+
    784	      1C 00 0F 0F 0F 0F	1B+  15, 15, 27,  0, 15, 15, 15, 15, 27
    785	      00 0F 0F 0F 0F 1B	00+
    786	      0F 0F 0F 0F 1B 00	0F+
    787	      0F 0F 0F 1B
1   788	1E0F  00 00 00 0F 0F 0F	0F+  db	  0,  0,  0, 15, 15, 15, 15, 28,  0, 15, 15, 15, 15, 27,  0, 15, 15, 15, 15, 15, 15, 15, 15,+
    789	      1C 00 0F 0F 0F 0F	1B+  15, 15, 27,  0, 15, 15, 15, 15, 27
    790	      00 0F 0F 0F 0F 0F	0F+
    791	      0F 0F 0F 0F 1B 00	0F+
    792	      0F 0F 0F 1B
1   793	1E2F  00 00 00 0F 0F 0F	0F+  db	  0,  0,  0, 15, 15, 15, 15, 15, 28,  0, 15, 15, 15, 15, 15, 15, 15, 15, 15, 15, 15, 15, 15,+
    794	      0F 1C 00 0F 0F 0F	0F+  15, 15, 15, 15, 15, 15, 15, 15, 27
    795	      0F 0F 0F 0F 0F 0F	0F+
    796	      0F 0F 0F 0F 0F 0F	0F+
    797	      0F 0F 0F 1B
1   798	1E4F  00 00 00 0F 0F 0F	0F+  db	  0,  0,  0, 15, 15, 15, 15, 15, 28,  0, 15, 15, 15, 15, 15, 15, 15, 15, 15, 15, 15, 15, 15,+
Turbo Assembler	 Version 3.2	    03/09/00 02:20:48	    Page 15
my.asm



    799	      0F 1C 00 0F 0F 0F	0F+  15, 15, 15, 15, 15, 15, 15, 15,  0
    800	      0F 0F 0F 0F 0F 0F	0F+
    801	      0F 0F 0F 0F 0F 0F	0F+
    802	      0F 0F 0F 00
1   803	1E6F  00 00 00 00 0F 0F	0F+  db	  0,  0,  0,  0, 15, 15, 15, 15, 15, 28,  0, 15, 15, 15, 15, 15, 15, 15, 15, 15, 15, 15, 15,+
    804	      0F 0F 1C 00 0F 0F	0F+  15, 15, 15, 15, 15, 15, 15,  0,  0
    805	      0F 0F 0F 0F 0F 0F	0F+
    806	      0F 0F 0F 0F 0F 0F	0F+
    807	      0F 0F 00 00
1   808	1E8F  00 00 00 00 0F 0F	0F+  db	  0,  0,  0,  0, 15, 15, 15, 15, 15, 28,  0, 15, 15, 15, 15, 15, 15, 15, 15, 15, 15, 15, 15,+
    809	      0F 0F 1C 00 0F 0F	0F+  15, 15, 15, 15, 15, 15, 15,  0,  0
    810	      0F 0F 0F 0F 0F 0F	0F+
    811	      0F 0F 0F 0F 0F 0F	0F+
    812	      0F 0F 00 00
1   813	1EAF  00 00 00 00 00 0F	0F+  db	  0,  0,  0,  0,  0, 15, 15, 15, 15, 15, 15, 15, 15, 15, 15, 15, 15, 15, 15, 15, 15, 15, 15,+
    814	      0F 0F 0F 0F 0F 0F	0F+  15, 15, 15, 15, 15, 15, 15,  0,  0
    815	      0F 0F 0F 0F 0F 0F	0F+
    816	      0F 0F 0F 0F 0F 0F	0F+
    817	      0F 0F 00 00
1   818	1ECF  00 00 00 00 00 00	0F+  db	  0,  0,  0,  0,  0,  0, 15, 15, 15, 15, 15, 15, 15, 15, 15, 15, 15, 15, 15, 15, 15, 15, 15,+
    819	      0F 0F 0F 0F 0F 0F	0F+  15, 15, 15, 15, 15, 15, 15, 15,  0
    820	      0F 0F 0F 0F 0F 0F	0F+
    821	      0F 0F 0F 0F 0F 0F	0F+
    822	      0F 0F 0F 00
1   823	1EEF  00 00 00 00 00 00	0F+  db	  0,  0,  0,  0,  0,  0, 15, 15, 15, 15, 15, 15, 15, 15, 15, 15, 15, 15, 15, 15, 15, 15, 15,+
    824	      0F 0F 0F 0F 0F 0F	0F+  15, 15, 15, 15, 15, 15, 15, 15,  0
    825	      0F 0F 0F 0F 0F 0F	0F+
    826	      0F 0F 0F 0F 0F 0F	0F+
    827	      0F 0F 0F 00
1   828	1F0F  00 00 00 00 00 00	00+  db	  0,  0,  0,  0,  0,  0,  0, 15, 15, 15, 15, 15, 15, 15, 15, 15, 15, 15, 15, 15, 15, 15, 15,+
    829	      0F 0F 0F 0F 0F 0F	0F+  15, 15, 15, 15, 15, 15, 15, 15,  0
    830	      0F 0F 0F 0F 0F 0F	0F+
    831	      0F 0F 0F 0F 0F 0F	0F+
    832	      0F 0F 0F 00
1   833	1F2F  00 00 00 00 00 00	00+  db	  0,  0,  0,  0,  0,  0,  0,  0, 15, 15, 15, 15, 15, 15, 15, 15, 15, 15, 15, 15, 15, 15, 15,+
    834	      00 0F 0F 0F 0F 0F	0F+  15, 15, 15, 15, 15, 15, 15, 15,  0
    835	      0F 0F 0F 0F 0F 0F	0F+
    836	      0F 0F 0F 0F 0F 0F	0F+
    837	      0F 0F 0F 00
1   838	1F4F  00 00 00 00 00 00	00+  db	  0,  0,  0,  0,  0,  0,  0,  0, 15, 15, 15, 15, 15, 15, 15, 15, 15, 15, 15, 15, 15, 15, 15,+
    839	      00 0F 0F 0F 0F 0F	0F+  15, 15, 15, 15, 15, 15, 15, 15,  0
    840	      0F 0F 0F 0F 0F 0F	0F+
    841	      0F 0F 0F 0F 0F 0F	0F+
    842	      0F 0F 0F 00
1   843	1F6F  00 00 00 00 00 00	00+  db	  0,  0,  0,  0,  0,  0,  0,  0, 15, 15, 15, 15, 15, 15, 15, 15, 15, 15, 15, 15, 15, 15, 15,+
    844	      00 0F 0F 0F 0F 0F	0F+  15, 15, 15, 15, 15, 15, 15, 15,  0
    845	      0F 0F 0F 0F 0F 0F	0F+
    846	      0F 0F 0F 0F 0F 0F	0F+
    847	      0F 0F 0F 00
1   848	1F8F  00 00 00 00 00 00	00+  db	  0,  0,  0,  0,  0,  0,  0,  0, 15, 15, 15, 15, 15, 15, 15, 15, 15, 15, 15, 15, 15, 15, 15,+
    849	      00 0F 0F 0F 0F 0F	0F+  15, 15, 15, 15, 15, 15, 15, 15,  0
    850	      0F 0F 0F 0F 0F 0F	0F+
    851	      0F 0F 0F 0F 0F 0F	0F+
    852	      0F 0F 0F 00
1   853	1FAF  00 00 00 00 00 00	00+  db	  0,  0,  0,  0,  0,  0,  0,  0, 15, 15, 15, 15, 15, 15, 15, 15, 15, 15, 15, 15, 15, 15, 15,+
    854	      00 0F 0F 0F 0F 0F	0F+  15, 15, 15, 15, 15, 15, 15, 15,  0
    855	      0F 0F 0F 0F 0F 0F	0F+
Turbo Assembler	 Version 3.2	    03/09/00 02:20:48	    Page 16
my.asm



    856	      0F 0F 0F 0F 0F 0F	0F+
    857	      0F 0F 0F 00
1   858	1FCF  00 00 00 00 00 00	00+  db	  0,  0,  0,  0,  0,  0,  0,  0,  0, 15, 15, 15, 15, 15, 15, 15, 15, 15, 15, 15, 15, 15, 15,+
    859	      00 00 0F 0F 0F 0F	0F+  15, 15, 15, 15, 15, 15, 15,  0,  0
    860	      0F 0F 0F 0F 0F 0F	0F+
    861	      0F 0F 0F 0F 0F 0F	0F+
    862	      0F 0F 00 00
1   863
    864						     include RepCur.asm
1   865	1FEF  00 00 10 10	     Repair  db	0,0,16,16
1   866	1FF3  00 00 00 00 00 00	00+  db	  0,  0,  0,  0,  0,  0,  0,  0,  0,  0,  0,  0,  0,  0,  0,  0,  0,  0,  0,  0,  0,  0,  0,+
    867	      00 00 00 00 00 00	00+  0,	 0,  0,	 0,  0,	 0,  0,	 0,  0
    868	      00 00 00 00 00 00	00+
    869	      00 00 00 00 00 00	00+
    870	      00 00 00 00
1   871	2013  00 00 00 00 00 00	00+  db	  0,  0,  0,  0,  0,  0,  0,  0,  0,  0,  0,  0,  0,  0,  0,  0,  0,  0,  0,  0,  0,  0, 28,+
    872	      00 00 00 00 00 00	00+  28, 28, 29,  0,  0,  0,  0,  0,  0
    873	      00 00 00 00 00 00	00+
    874	      00 1C 1C 1C 1D 00	00+
    875	      00 00 00 00
1   876	2033  00 00 00 00 00 00	00+  db	  0,  0,  0,  0,  0,  0,  0,  0,  0,  0,  0,  0,  0,  0,  0,  0,  0,  0,  0,  0,  0, 28, 23,+
    877	      00 00 00 00 00 00	00+  18, 29,  0,  0,  0,  0,  0,  0,  0
    878	      00 00 00 00 00 00	00+
    879	      1C 17 12 1D 00 00	00+
    880	      00 00 00 00
1   881	2053  00 00 00 00 00 00	00+  db	  0,  0,  0,  0,  0,  0,  0,  0,  0,  0,  0,  0,  0,  0,  0,  0,  0,  0,  0,  0, 28, 23, 18,+
    882	      00 00 00 00 00 00	00+  29,  0,  0,  0,  0,  0,  0,  0,  0
    883	      00 00 00 00 00 00	1C+
    884	      17 12 1D 00 00 00	00+
    885	      00 00 00 00
1   886	2073  00 00 00 00 00 00	00+  db	  0,  0,  0,  0,  0,  0,  0,  0,  0,  0,  0,  0,  0,  0,  0,  0,  0,  0,  0,  0, 28, 23, 18,+
    887	      00 00 00 00 00 00	00+  29,  0,  0,  0,  0,  0,  0,  0,  0
    888	      00 00 00 00 00 00	1C+
    889	      17 12 1D 00 00 00	00+
    890	      00 00 00 00
1   891	2093  00 00 00 00 00 00	00+  db	  0,  0,  0,  0,  0,  0,  0,  0,  0,  0,  0,  0,  0,  0,  0,  0,  0,  0,  0,  0, 28, 23, 18,+
    892	      00 00 00 00 00 00	00+  29,  0,  0,  0,  0,  0, 29,  0,  0
    893	      00 00 00 00 00 00	1C+
    894	      17 12 1D 00 00 00	00+
    895	      00 1D 00 00
1   896	20B3  00 00 00 00 00 00	00+  db	  0,  0,  0,  0,  0,  0,  0,  0,  0,  0,  0,  0,  0,  0,  0,  0,  0,  0,  0,  0, 28, 23, 18,+
    897	      00 00 00 00 00 00	00+  29,  0,  0,  0,  0, 29, 28,  0,  0
    898	      00 00 00 00 00 00	1C+
    899	      17 12 1D 00 00 00	00+
    900	      1D 1C 00 00
1   901	20D3  00 00 00 00 00 00	00+  db	  0,  0,  0,  0,  0,  0,  0,  0,  0,  0,  0,  0,  0,  0,  0,  0,  0,  0,  0, 30, 27, 18, 18,+
    902	      00 00 00 00 00 00	00+  18, 29, 29, 29, 29, 18, 28,  0,  0
    903	      00 00 00 00 00 1E	1B+
    904	      12 12 12 1D 1D 1D	1D+
    905	      12 1C 00 00
1   906	20F3  00 00 00 00 00 00	00+  db	  0,  0,  0,  0,  0,  0,  0,  0,  0,  0,  0,  0,  0,  0,  0,  0,  0,  0, 30, 27, 20, 18, 18,+
    907	      00 00 00 00 00 00	00+  18, 18, 18, 18, 18, 23, 28,  0,  0
    908	      00 00 00 00 1E 1B	14+
    909	      12 12 12 12 12 12	12+
    910	      17 1C 00 00
1   911	2113  00 00 00 00 00 00	00+  db	  0,  0,  0,  0,  0,  0,  0,  0,  0,  0,  0,  0,  0,  0,  0,  0,  0, 30, 27, 20, 18, 18, 20,+
    912	      00 00 00 00 00 00	00+  18, 23, 23, 23, 23, 28,  0,  0,  0
Turbo Assembler	 Version 3.2	    03/09/00 02:20:48	    Page 17
my.asm



    913	      00 00 00 1E 1B 14	12+
    914	      12 14 12 17 17 17	17+
    915	      1C 00 00 00
1   916	2133  00 00 00 00 00 00	00+  db	  0,  0,  0,  0,  0,  0,  0,  0,  0,  0,  0,  0,  0,  0,  0,  0, 30, 27, 20, 18, 18, 20, 27,+
    917	      00 00 00 00 00 00	00+  30, 28, 28, 28, 28,  0,  0,  0,  0
    918	      00 00 1E 1B 14 12	12+
    919	      14 1B 1E 1C 1C 1C	1C+
    920	      00 00 00 00
1   921	2153  00 00 00 00 00 00	00+  db	  0,  0,  0,  0,  0,  0,  0,  0,  0,  0,  0,  0,  0,  0,  0, 30, 27, 20, 18, 18, 20, 27, 30,+
    922	      00 00 00 00 00 00	00+  0,	 0,  0,	 0,  0,	 0,  0,	 0,  0
    923	      00 1E 1B 14 12 12	14+
    924	      1B 1E 00 00 00 00	00+
    925	      00 00 00 00
1   926	2173  00 00 00 00 00 00	00+  db	  0,  0,  0,  0,  0,  0,  0,  0,  0,  0,  0,  0,  0,  0, 30, 27, 20, 18, 18, 20, 27, 30,  0,+
    927	      00 00 00 00 00 00	00+  0,	 0,  0,	 0,  0,	 0,  0,	 0,  0
    928	      1E 1B 14 12 12 14	1B+
    929	      1E 00 00 00 00 00	00+
    930	      00 00 00 00
1   931	2193  00 00 00 00 00 00	00+  db	  0,  0,  0,  0,  0,  0,  0,  0,  0,  0,  0,  0,  0, 30, 27, 20, 18, 18, 20, 27, 30,  0,  0,+
    932	      00 00 00 00 00 00	1E+  0,	 0,  0,	 0,  0,	 0,  0,	 0,  0
    933	      1B 14 12 12 14 1B	1E+
    934	      00 00 00 00 00 00	00+
    935	      00 00 00 00
1   936	21B3  00 00 00 00 00 00	00+  db	  0,  0,  0,  0,  0,  0,  0,  0,  0,  0,  0,  0, 30, 27, 20, 18, 18, 20, 27, 30,  0,  0,  0,+
    937	      00 00 00 00 00 1E	1B+  0,	 0,  0,	 0,  0,	 0,  0,	 0,  0
    938	      14 12 12 14 1B 1E	00+
    939	      00 00 00 00 00 00	00+
    940	      00 00 00 00
1   941	21D3  00 00 00 00 00 00	00+  db	  0,  0,  0,  0,  0,  0,  0,  0,  0,  0,  0, 30, 27, 20, 18, 18, 20, 27, 30,  0,  0,  0,  0,+
    942	      00 00 00 00 1E 1B	14+  0,	 0,  0,	 0,  0,	 0,  0,	 0,  0
    943	      12 12 14 1B 1E 00	00+
    944	      00 00 00 00 00 00	00+
    945	      00 00 00 00
1   946	21F3  00 00 00 00 00 00	00+  db	  0,  0,  0,  0,  0,  0,  0,  0,  0,  0, 30, 27, 21, 18, 18, 20, 27, 30,  0,  0,  0,  0,  0,+
    947	      00 00 00 1E 1B 15	12+  0,	 0,  0,	 0,  0,	 0,  0,	 0,  0
    948	      12 14 1B 1E 00 00	00+
    949	      00 00 00 00 00 00	00+
    950	      00 00 00 00
1   951	2213  00 00 00 00 00 00	00+  db	  0,  0,  0,  0,  0,  0,  0,  0,  0, 30, 27, 20, 18, 18, 20, 27, 30,  0,  0,  0,  0,  0,  0,+
    952	      00 00 1E 1B 14 12	12+  0,	 0,  0,	 0,  0,	 0,  0,	 0,  0
    953	      14 1B 1E 00 00 00	00+
    954	      00 00 00 00 00 00	00+
    955	      00 00 00 00
1   956	2233  00 00 00 00 00 00	00+  db	  0,  0,  0,  0,  0,  0,  0,  0, 30, 27, 20, 18, 18, 20, 27, 30,  0,  0,  0,  0,  0,  0,  0,+
    957	      00 1E 1B 14 12 12	14+  0,	 0,  0,	 0,  0,	 0,  0,	 0,  0
    958	      1B 1E 00 00 00 00	00+
    959	      00 00 00 00 00 00	00+
    960	      00 00 00 00
1   961	2253  00 00 00 00 00 00	00+  db	  0,  0,  0,  0,  0,  0,  0, 30, 27, 20, 18, 18, 20, 27, 30,  0,  0,  0,  0,  0,  0,  0,  0,+
    962	      1E 1B 14 12 12 14	1B+  0,	 0,  0,	 0,  0,	 0,  0,	 0,  0
    963	      1E 00 00 00 00 00	00+
    964	      00 00 00 00 00 00	00+
    965	      00 00 00 00
1   966	2273  00 00 00 00 00 00	1E+  db	  0,  0,  0,  0,  0,  0, 30, 27, 20, 18, 18, 20, 27, 30,  0,  0,  0,  0,  0,  0,  0,  0,  0,+
    967	      1B 14 12 12 14 1B	1E+  0,	 0,  0,	 0,  0,	 0,  0,	 0,  0
    968	      00 00 00 00 00 00	00+
    969	      00 00 00 00 00 00	00+
Turbo Assembler	 Version 3.2	    03/09/00 02:20:48	    Page 18
my.asm



    970	      00 00 00 00
1   971	2293  00 00 00 00 00 1E	1B+  db	  0,  0,  0,  0,  0, 30, 27, 20, 18, 18, 20, 27, 30,  0,  0,  0,  0,  0,  0,  0,  0,  0,  0,+
    972	      14 12 12 14 1B 1E	00+  0,	 0,  0,	 0,  0,	 0,  0,	 0,  0
    973	      00 00 00 00 00 00	00+
    974	      00 00 00 00 00 00	00+
    975	      00 00 00 00
1   976	22B3  00 00 00 00 00 1D	14+  db	  0,  0,  0,  0,  0, 29, 20, 18, 18, 20, 27, 30,  0,  0,  0,  0,  0,  0,  0,  0,  0,  0,  0,+
    977	      12 12 14 1B 1E 00	00+  0,	 0,  0,	 0,  0,	 0,  0,	 0,  0
    978	      00 00 00 00 00 00	00+
    979	      00 00 00 00 00 00	00+
    980	      00 00 00 00
1   981	22D3  00 00 00 00 00 1D	1D+  db	  0,  0,  0,  0,  0, 29, 29, 20, 20, 27, 30,  0,  0,  0,  0,  0,  0,  0,  0,  0,  0,  0,  0,+
    982	      14 14 1B 1E 00 00	00+  0,	 0,  0,	 0,  0,	 0,  0,	 0,  0
    983	      00 00 00 00 00 00	00+
    984	      00 00 00 00 00 00	00+
    985	      00 00 00 00
1   986	22F3  00 00 00 00 00 00	1D+  db	  0,  0,  0,  0,  0,  0, 29, 29, 27, 30,  0,  0,  0,  0,  0,  0,  0,  0,  0,  0,  0,  0,  0,+
    987	      1D 1B 1E 00 00 00	00+  0,	 0,  0,	 0,  0,	 0,  0,	 0,  0
    988	      00 00 00 00 00 00	00+
    989	      00 00 00 00 00 00	00+
    990	      00 00 00 00
1   991	2313  00 00 00 00 00 00	00+  db	  0,  0,  0,  0,  0,  0,  0, 29,  0,  0,  0,  0,  0,  0,  0,  0,  0,  0,  0,  0,  0,  0,  0,+
    992	      1D 00 00 00 00 00	00+  0,	 0,  0,	 0,  0,	 0,  0,	 0,  0
    993	      00 00 00 00 00 00	00+
    994	      00 00 00 00 00 00	00+
    995	      00 00 00 00
1   996	2333  00 00 00 00 00 00	00+  db	  0,  0,  0,  0,  0,  0,  0,  0,  0,  0,  0,  0,  0,  0,  0,  0,  0,  0,  0,  0,  0,  0,  0,+
    997	      00 00 00 00 00 00	00+  0,	 0,  0,	 0,  0,	 0,  0,	 0,  0
    998	      00 00 00 00 00 00	00+
    999	      00 00 00 00 00 00	00+
   1000	      00 00 00 00
1  1001	2353  00 00 00 00 00 00	00+  db	  0,  0,  0,  0,  0,  0,  0,  0,  0,  0,  0,  0,  0,  0,  0,  0,  0,  0,  0,  0,  0,  0,  0,+
   1002	      00 00 00 00 00 00	00+  0,	 0,  0,	 0,  0,	 0,  0,	 0,  0
   1003	      00 00 00 00 00 00	00+
   1004	      00 00 00 00 00 00	00+
   1005	      00 00 00 00
1  1006	2373  00 00 00 00 00 00	00+  db	  0,  0,  0,  0,  0,  0,  0,  0,  0,  0,  0,  0,  0,  0,  0,  0,  0,  0,  0,  0,  0,  0,  0,+
   1007	      00 00 00 00 00 00	00+  0,	 0,  0,	 0,  0,	 0,  0,	 0,  0
   1008	      00 00 00 00 00 00	00+
   1009	      00 00 00 00 00 00	00+
   1010	      00 00 00 00
1  1011	2393  00 00 00 00 00 00	00+  db	  0,  0,  0,  0,  0,  0,  0,  0,  0,  0,  0,  0,  0,  0,  0,  0,  0,  0,  0,  0,  0,  0,  0,+
   1012	      00 00 00 00 00 00	00+  0,	 0,  0,	 0,  0,	 0,  0,	 0,  0
   1013	      00 00 00 00 00 00	00+
   1014	      00 00 00 00 00 00	00+
   1015	      00 00 00 00
1  1016	23B3  00 00 00 00 00 00	00+  db	  0,  0,  0,  0,  0,  0,  0,  0,  0,  0,  0,  0,  0,  0,  0,  0,  0,  0,  0,  0,  0,  0,  0,+
   1017	      00 00 00 00 00 00	00+  0,	 0,  0,	 0,  0,	 0,  0,	 0,  0
   1018	      00 00 00 00 00 00	00+
   1019	      00 00 00 00 00 00	00+
   1020	      00 00 00 00
1  1021	23D3  00 00 00 00 00 00	00+  db	  0,  0,  0,  0,  0,  0,  0,  0,  0,  0,  0,  0,  0,  0,  0,  0,  0,  0,  0,  0,  0,  0,  0,+
   1022	      00 00 00 00 00 00	00+  0,	 0,  0,	 0,  0,	 0,  0,	 0,  0
   1023	      00 00 00 00 00 00	00+
   1024	      00 00 00 00 00 00	00+
   1025	      00 00 00 00
1  1026
Turbo Assembler	 Version 3.2	    03/09/00 02:20:48	    Page 19
my.asm



   1027						     include Sold.asm
1  1028	23F3  00 00 10 10	     Sold     db 0,0,16,16
1  1029	23F7  00 00 00 00 00 00	00+  db	  0,  0,  0,  0,  0,  0,  0,  0,  0,  0,  0,  0,124,127,127,124,  0,  0,  0,  0,124,127,127,+
   1030	      00 00 00 00 00 7C	7F+  124,  0,  0,  0,  0,  0,  0,  0,  0
   1031	      7F 7C 00 00 00 00	7C+
   1032	      7F 7F 7C 00 00 00	00+
   1033	      00 00 00 00
1  1034	2417  00 00 00 00 00 00	00+  db	  0,  0,  0,  0,  0,  0,  0,  0,  0,  0,  0,121,124,127,127,124,121,121,121,121,124,127,127,+
   1035	      00 00 00 00 79 7C	7F+  124,  0,  0,  0,  0,  0,  0,  0,  0
   1036	      7F 7C 79 79 79 79	7C+
   1037	      7F 7F 7C 00 00 00	00+
   1038	      00 00 00 00
1  1039	2437  00 00 00 00 00 00	00+  db	  0,  0,  0,  0,  0,  0,  0,  0,  0,  0,121,127,124,127,127,124,127,127,127,127,124,127,127,+
   1040	      00 00 00 79 7F 7C	7F+  124,121,  0,  0,  0,  0,  0,  0,  0
   1041	      7F 7C 7F 7F 7F 7F	7C+
   1042	      7F 7F 7C 79 00 00	00+
   1043	      00 00 00 00
1  1044	2457  00 00 00 00 00 00	00+  db	  0,  0,  0,  0,  0,  0,  0,  0,  0,121,127,126,124,127,127,124,126,126,126,126,124,127,127,+
   1045	      00 00 79 7F 7E 7C	7F+  124,127,121,  0,  0,  0,  0,  0,  0
   1046	      7F 7C 7E 7E 7E 7E	7C+
   1047	      7F 7F 7C 7F 79 00	00+
   1048	      00 00 00 00
1  1049	2477  00 00 00 00 00 00	00+  db	  0,  0,  0,  0,  0,  0,  0,  0,121,127,126,125,124,127,127,124,125,125,125,125,124,127,127,+
   1050	      00 79 7F 7E 7D 7C	7F+  124,126,127,121,  0,  0,  0,  0,  0
   1051	      7F 7C 7D 7D 7D 7D	7C+
   1052	      7F 7F 7C 7E 7F 79	00+
   1053	      00 00 00 00
1  1054	2497  00 00 00 00 00 00	00+  db	  0,  0,  0,  0,  0,  0,  0,121,127,126,125,123,124,127,127,124,123,123,123,123,124,127,127,+
   1055	      79 7F 7E 7D 7B 7C	7F+  124,125,126,127,121,  0,  0,  0,  0
   1056	      7F 7C 7B 7B 7B 7B	7C+
   1057	      7F 7F 7C 7D 7E 7F	79+
   1058	      00 00 00 00
1  1059	24B7  00 00 00 00 00 00	79+  db	  0,  0,  0,  0,  0,  0,121,127,126,125,123,  0,124,127,127,124,  0,  0,  0,  0,124,127,127,+
   1060	      7F 7E 7D 7B 00 7C	7F+  124,123,125,126,127,121,  0,  0,  0
   1061	      7F 7C 00 00 00 00	7C+
   1062	      7F 7F 7C 7B 7D 7E	7F+
   1063	      79 00 00 00
1  1064	24D7  00 00 00 00 00 79	7F+  db	  0,  0,  0,  0,  0,121,127,126,125,123,  0,  0,124,127,127,124,  0,  0,  0,  0,124,127,127,+
   1065	      7E 7D 7B 00 00 7C	7F+  124,  0,123,125,126,127,120,  0,  0
   1066	      7F 7C 00 00 00 00	7C+
   1067	      7F 7F 7C 00 7B 7D	7E+
   1068	      7F 78 00 00
1  1069	24F7  00 00 00 00 00 79	7F+  db	  0,  0,  0,  0,  0,121,127,126,125,123,  0,  0,124,127,127,124,  0,  0,  0,  0,124,127,127,+
   1070	      7E 7D 7B 00 00 7C	7F+  124,  0,  0,123,123,121,  0,  0,  0
   1071	      7F 7C 00 00 00 00	7C+
   1072	      7F 7F 7C 00 00 7B	7B+
   1073	      79 00 00 00
1  1074	2517  00 00 00 00 00 79	7F+  db	  0,  0,  0,  0,  0,121,127,126,125,123,  0,  0,124,127,127,124,  0,  0,  0,  0,124,127,127,+
   1075	      7E 7D 7B 00 00 7C	7F+  124,  0,  0,  0,120,  0,  0,  0,  0
   1076	      7F 7C 00 00 00 00	7C+
   1077	      7F 7F 7C 00 00 00	78+
   1078	      00 00 00 00
1  1079	2537  00 00 00 00 00 79	7F+  db	  0,  0,  0,  0,  0,121,127,126,125,123,  0,  0,124,127,127,124,  0,  0,  0,  0,124,127,127,+
   1080	      7E 7D 7B 00 00 7C	7F+  124,  0,  0,  0,  0,  0,  0,  0,  0
   1081	      7F 7C 00 00 00 00	7C+
   1082	      7F 7F 7C 00 00 00	00+
   1083	      00 00 00 00
Turbo Assembler	 Version 3.2	    03/09/00 02:20:48	    Page 20
my.asm



1  1084	2557  00 00 00 00 00 79	7F+  db	  0,  0,  0,  0,  0,121,127,126,125,123,  0,  0,124,127,127,124,  0,  0,  0,  0,124,127,127,+
   1085	      7E 7D 7B 00 00 7C	7F+  124,  0,  0,  0,  0,  0,  0,  0,  0
   1086	      7F 7C 00 00 00 00	7C+
   1087	      7F 7F 7C 00 00 00	00+
   1088	      00 00 00 00
1  1089	2577  00 00 00 00 00 00	79+  db	  0,  0,  0,  0,  0,  0,121,127,126,125,123,  0,124,127,127,124,  0,  0,  0,  0,124,127,127,+
   1090	      7F 7E 7D 7B 00 7C	7F+  124,  0,  0,  0,  0,  0,  0,  0,  0
   1091	      7F 7C 00 00 00 00	7C+
   1092	      7F 7F 7C 00 00 00	00+
   1093	      00 00 00 00
1  1094	2597  00 00 00 00 00 00	00+  db	  0,  0,  0,  0,  0,  0,  0,121,127,126,125,123,124,127,127,124,123,123,123,123,124,127,127,+
   1095	      79 7F 7E 7D 7B 7C	7F+  124,  0,  0,  0,  0,  0,  0,  0,  0
   1096	      7F 7C 7B 7B 7B 7B	7C+
   1097	      7F 7F 7C 00 00 00	00+
   1098	      00 00 00 00
1  1099	25B7  00 00 00 00 00 00	00+  db	  0,  0,  0,  0,  0,  0,  0,  0,121,127,126,125,124,127,127,124,125,125,125,125,124,127,127,+
   1100	      00 79 7F 7E 7D 7C	7F+  124,120,  0,  0,  0,  0,  0,  0,  0
   1101	      7F 7C 7D 7D 7D 7D	7C+
   1102	      7F 7F 7C 78 00 00	00+
   1103	      00 00 00 00
1  1104	25D7  00 00 00 00 00 00	00+  db	  0,  0,  0,  0,  0,  0,  0,  0,  0,121,127,126,124,127,127,124,126,126,126,126,124,127,127,+
   1105	      00 00 79 7F 7E 7C	7F+  124,125,120,  0,  0,  0,  0,  0,  0
   1106	      7F 7C 7E 7E 7E 7E	7C+
   1107	      7F 7F 7C 7D 78 00	00+
   1108	      00 00 00 00
1  1109	25F7  00 00 00 00 00 00	00+  db	  0,  0,  0,  0,  0,  0,  0,  0,  0,  0,121,127,124,127,127,124,125,125,125,125,124,127,127,+
   1110	      00 00 00 79 7F 7C	7F+  124,125,125,120,  0,  0,  0,  0,  0
   1111	      7F 7C 7D 7D 7D 7D	7C+
   1112	      7F 7F 7C 7D 7D 78	00+
   1113	      00 00 00 00
1  1114	2617  00 00 00 00 00 00	00+  db	  0,  0,  0,  0,  0,  0,  0,  0,  0,  0,  0,121,124,127,127,124,125,125,125,125,124,127,127,+
   1115	      00 00 00 00 79 7C	7F+  124,127,125,125,120,  0,  0,  0,  0
   1116	      7F 7C 7D 7D 7D 7D	7C+
   1117	      7F 7F 7C 7F 7D 7D	78+
   1118	      00 00 00 00
1  1119	2637  00 00 00 00 00 00	00+  db	  0,  0,  0,  0,  0,  0,  0,  0,  0,  0,  0,  0,124,127,127,124,120,120,120,120,124,127,127,+
   1120	      00 00 00 00 00 7C	7F+  124,126,127,125,125,120,  0,  0,  0
   1121	      7F 7C 78 78 78 78	7C+
   1122	      7F 7F 7C 7E 7F 7D	7D+
   1123	      78 00 00 00
1  1124	2657  00 00 00 00 00 00	00+  db	  0,  0,  0,  0,  0,  0,  0,  0,  0,  0,  0,  0,124,127,127,124,  0,  0,  0,  0,124,127,127,+
   1125	      00 00 00 00 00 7C	7F+  124,125,126,127,125,125,120,  0,  0
   1126	      7F 7C 00 00 00 00	7C+
   1127	      7F 7F 7C 7D 7E 7F	7D+
   1128	      7D 78 00 00
1  1129	2677  00 00 00 00 00 00	00+  db	  0,  0,  0,  0,  0,  0,  0,  0,  0,  0,  0,  0,124,127,127,124,  0,  0,  0,  0,124,127,127,+
   1130	      00 00 00 00 00 7C	7F+  124,123,125,126,127,125,120,  0,  0
   1131	      7F 7C 00 00 00 00	7C+
   1132	      7F 7F 7C 7B 7D 7E	7F+
   1133	      7D 78 00 00
1  1134	2697  00 00 00 00 00 00	00+  db	  0,  0,  0,  0,  0,  0,  0,  0,  0,  0,  0,  0,124,127,127,124,  0,  0,  0,  0,124,127,127,+
   1135	      00 00 00 00 00 7C	7F+  124,  0,123,125,126,127,121,  0,  0
   1136	      7F 7C 00 00 00 00	7C+
   1137	      7F 7F 7C 00 7B 7D	7E+
   1138	      7F 79 00 00
1  1139	26B7  00 00 00 00 00 00	00+  db	  0,  0,  0,  0,  0,  0,  0,  0,  0,  0,  0,  0,124,127,127,124,  0,  0,  0,  0,124,127,127,+
   1140	      00 00 00 00 00 7C	7F+  124,  0,123,125,126,127,121,  0,  0
Turbo Assembler	 Version 3.2	    03/09/00 02:20:48	    Page 21
my.asm



   1141	      7F 7C 00 00 00 00	7C+
   1142	      7F 7F 7C 00 7B 7D	7E+
   1143	      7F 79 00 00
1  1144	26D7  00 00 00 00 00 00	00+  db	  0,  0,  0,  0,  0,  0,  0,120,  0,  0,  0,  0,124,127,127,124,  0,  0,  0,  0,124,127,127,+
   1145	      78 00 00 00 00 7C	7F+  124,  0,123,125,126,127,121,  0,  0
   1146	      7F 7C 00 00 00 00	7C+
   1147	      7F 7F 7C 00 7B 7D	7E+
   1148	      7F 79 00 00
1  1149	26F7  00 00 00 00 00 00	79+  db	  0,  0,  0,  0,  0,  0,121,123,123,  0,  0,  0,124,127,127,124,  0,  0,  0,  0,124,127,127,+
   1150	      7B 7B 00 00 00 7C	7F+  124,  0,123,125,126,127,121,  0,  0
   1151	      7F 7C 00 00 00 00	7C+
   1152	      7F 7F 7C 00 7B 7D	7E+
   1153	      7F 79 00 00
1  1154	2717  00 00 00 00 00 79	7F+  db	  0,  0,  0,  0,  0,121,127,126,125,123,  0,  0,124,127,127,124,  0,  0,  0,  0,124,127,127,+
   1155	      7E 7D 7B 00 00 7C	7F+  124,  0,123,125,126,127,121,  0,  0
   1156	      7F 7C 00 00 00 00	7C+
   1157	      7F 7F 7C 00 7B 7D	7E+
   1158	      7F 79 00 00
1  1159	2737  00 00 00 00 00 00	79+  db	  0,  0,  0,  0,  0,  0,121,127,126,125,123,  0,124,127,127,124,  0,  0,  0,  0,124,127,127,+
   1160	      7F 7E 7D 7B 00 7C	7F+  124,123,125,126,127,121,  0,  0,  0
   1161	      7F 7C 00 00 00 00	7C+
   1162	      7F 7F 7C 7B 7D 7E	7F+
   1163	      79 00 00 00
1  1164	2757  00 00 00 00 00 00	00+  db	  0,  0,  0,  0,  0,  0,  0,121,127,126,125,123,124,127,127,124,123,123,123,123,124,127,127,+
   1165	      79 7F 7E 7D 7B 7C	7F+  124,125,126,127,121,  0,  0,  0,  0
   1166	      7F 7C 7B 7B 7B 7B	7C+
   1167	      7F 7F 7C 7D 7E 7F	79+
   1168	      00 00 00 00
1  1169	2777  00 00 00 00 00 00	00+  db	  0,  0,  0,  0,  0,  0,  0,  0,121,127,126,125,124,127,127,124,125,125,125,125,124,127,127,+
   1170	      00 79 7F 7E 7D 7C	7F+  124,126,127,121,  0,  0,  0,  0,  0
   1171	      7F 7C 7D 7D 7D 7D	7C+
   1172	      7F 7F 7C 7E 7F 79	00+
   1173	      00 00 00 00
1  1174	2797  00 00 00 00 00 00	00+  db	  0,  0,  0,  0,  0,  0,  0,  0,  0,121,127,126,124,127,127,124,126,126,126,126,124,127,127,+
   1175	      00 00 79 7F 7E 7C	7F+  124,127,121,  0,  0,  0,  0,  0,  0
   1176	      7F 7C 7E 7E 7E 7E	7C+
   1177	      7F 7F 7C 7F 79 00	00+
   1178	      00 00 00 00
1  1179	27B7  00 00 00 00 00 00	00+  db	  0,  0,  0,  0,  0,  0,  0,  0,  0,  0,121,127,124,127,127,124,127,127,127,127,124,127,127,+
   1180	      00 00 00 79 7F 7C	7F+  124,121,  0,  0,  0,  0,  0,  0,  0
   1181	      7F 7C 7F 7F 7F 7F	7C+
   1182	      7F 7F 7C 79 00 00	00+
   1183	      00 00 00 00
1  1184	27D7  00 00 00 00 00 00	00+  db	  0,  0,  0,  0,  0,  0,  0,  0,  0,  0,  0,121,124,127,127,124,121,121,121,121,124,127,127,+
   1185	      00 00 00 00 79 7C	7F+  124,  0,  0,  0,  0,  0,  0,  0,  0
   1186	      7F 7C 79 79 79 79	7C+
   1187	      7F 7F 7C 00 00 00	00+
   1188	      00 00 00 00
1  1189
   1190
   1191						     include ChronCur.asm
1  1192	27F7  00 00 10 10	     ChronoCur	     db	     0,0,16,16
1  1193	27FB  00 00 00 00 0A 0A	0A+  db	  0,  0,  0,  0, 10, 10, 10, 10, 10, 10, 10, 10, 10, 10, 10, 10, 10, 10, 10, 10, 10, 10, 10,+
   1194	      0A 0A 0A 0A 0A 0A	0A+  10, 10, 10, 10, 10,  0,  0,  0,  0
   1195	      0A 0A 0A 0A 0A 0A	0A+
   1196	      0A 0A 0A 0A 0A 0A	0A+
   1197	      00 00 00 00
Turbo Assembler	 Version 3.2	    03/09/00 02:20:48	    Page 22
my.asm



1  1198	281B  00 00 00 00 00 0A	0A+  db	  0,  0,  0,  0,  0, 10, 10,100,100, 98, 97, 95, 94, 93, 92, 91, 91, 92, 93, 94, 95, 97, 98,+
   1199	      64 64 62 61 5F 5E	5D+  100,100, 10, 10,  0,  0,  0,  0,  0
   1200	      5C 5B 5B 5C 5D 5E	5F+
   1201	      61 62 64 64 0A 0A	00+
   1202	      00 00 00 00
1  1203	283B  00 00 00 00 00 00	63+  db	  0,  0,  0,  0,  0,  0, 99, 10,100, 98, 96, 95, 94, 93, 92, 91, 91, 92, 93, 94, 95, 96, 98,+
   1204	      0A 64 62 60 5F 5E	5D+  100, 10, 99,  0,  0,  0,  0,  0,  0
   1205	      5C 5B 5B 5C 5D 5E	5F+
   1206	      60 62 64 0A 63 00	00+
   1207	      00 00 00 00
1  1208	285B  00 00 00 00 00 63	00+  db	  0,  0,  0,  0,  0, 99,  0,  0, 10, 98, 96, 95, 94, 93, 92, 91, 91, 92, 93, 94, 95, 96, 98,+
   1209	      00 0A 62 60 5F 5E	5D+  10,  0,  0, 99,  0,  0,  0,  0,  0
   1210	      5C 5B 5B 5C 5D 5E	5F+
   1211	      60 62 0A 00 00 63	00+
   1212	      00 00 00 00
1  1213	287B  0A 00 00 00 63 00	00+  db	 10,  0,  0,  0, 99,  0,  0,  0,  0, 10, 96, 95, 94, 93, 92, 91, 91, 92, 93, 94, 95, 96, 10,+
   1214	      00 00 0A 60 5F 5E	5D+  0,	 0,  0,	 0, 99,	 0,  0,	 0, 10
   1215	      5C 5B 5B 5C 5D 5E	5F+
   1216	      60 0A 00 00 00 00	63+
   1217	      00 00 00 0A
1  1218	289B  0A 0A 00 63 00 00	00+  db	 10, 10,  0, 99,  0,  0,  0,  0,  0, 10, 96, 95, 94, 93, 92, 91, 91, 92, 93, 94, 95, 96, 10,+
   1219	      00 00 0A 60 5F 5E	5D+  0,	 0,  0,	 0,  0,	99,  0,	10, 10
   1220	      5C 5B 5B 5C 5D 5E	5F+
   1221	      60 0A 00 00 00 00	00+
   1222	      63 00 0A 0A
1  1223	28BB  0A 0A 63 00 00 00	00+  db	 10, 10, 99,  0,  0,  0,  0,  0,  0, 97, 10, 95, 94, 93, 92, 91, 91, 92, 93, 94, 95, 10, 97,+
   1224	      00 00 61 0A 5F 5E	5D+  0,	 0,  0,	 0,  0,	 0, 99,	10, 10
   1225	      5C 5B 5B 5C 5D 5E	5F+
   1226	      0A 61 00 00 00 00	00+
   1227	      00 63 0A 0A
1  1228	28DB  0A 64 0A 00 00 00	00+  db	 10,100, 10,  0,  0,  0,  0,  0, 97,  0,  0, 10, 94, 93, 92, 91, 91, 92, 93, 94, 10,  0,  0,+
   1229	      00 61 00 00 0A 5E	5D+  97,  0,  0,  0,  0,  0, 10,100, 10
   1230	      5C 5B 5B 5C 5D 5E	0A+
   1231	      00 00 61 00 00 00	00+
   1232	      00 0A 64 0A
1  1233	28FB  0A 64 64 0A 00 00	00+  db	 10,100,100, 10,  0,  0,  0, 97,  0,  0,  0,  0, 10, 93, 92, 91, 91, 92, 93, 10,  0,  0,  0,+
   1234	      61 00 00 00 00 0A	5D+  0,	97,  0,	 0,  0,	10,100,100, 10
   1235	      5C 5B 5B 5C 5D 0A	00+
   1236	      00 00 00 61 00 00	00+
   1237	      0A 64 64 0A
1  1238	291B  0A 62 62 62 0A 0A	61+  db	 10, 98, 98, 98, 10, 10, 97,  0,  0,  0,  0,  0, 95, 10, 92, 91, 91, 92, 10, 95,  0,  0,  0,+
   1239	      00 00 00 00 00 5F	0A+  0,	 0, 97,	10, 10,	98, 98,	98, 10
   1240	      5C 5B 5B 5C 0A 5F	00+
   1241	      00 00 00 00 61 0A	0A+
   1242	      62 62 62 0A
1  1243	293B  0A 60 60 60 60 60	0A+  db	 10, 96, 96, 96, 96, 96, 10,  0,  0,  0,  0, 95,  0,  0, 10, 91, 91, 10,  0,  0, 95,  0,  0,+
   1244	      00 00 00 00 5F 00	00+  0,	 0, 10,	96, 96,	96, 96,	96, 10
   1245	      0A 5B 5B 0A 00 00	5F+
   1246	      00 00 00 00 0A 60	60+
   1247	      60 60 60 0A
1  1248	295B  0A 5F 5F 5F 5F 5F	5F+  db	 10, 95, 95, 95, 95, 95, 95, 10,  0,  0, 95,  0,  0,  0,  0, 10, 10,  0,  0,  0,  0, 95,  0,+
   1249	      0A 00 00 5F 00 00	00+  0,	10, 95,	95, 95,	95, 95,	95, 10
   1250	      00 0A 0A 00 00 00	00+
   1251	      5F 00 00 0A 5F 5F	5F+
   1252	      5F 5F 5F 0A
1  1253	297B  0A 5E 5E 5E 5E 5E	5E+  db	 10, 94, 94, 94, 94, 94, 94, 94, 10, 95,  0,  0,  0,  0, 93,  0,  0, 93,  0,  0,  0,  0, 95,+
   1254	      5E 0A 5F 00 00 00	00+  10, 94, 94, 94, 94, 94, 94, 94, 10
Turbo Assembler	 Version 3.2	    03/09/00 02:20:48	    Page 23
my.asm



   1255	      5D 00 00 5D 00 00	00+
   1256	      00 5F 0A 5E 5E 5E	5E+
   1257	      5E 5E 5E 0A
1  1258	299B  0A 5D 5D 5D 5D 5D	5D+  db	 10, 93, 93, 93, 93, 93, 93, 93, 93, 10,  0,  0,  0, 93,  0,  0,  0,  0, 93,  0,  0,  0, 10,+
   1259	      5D 5D 0A 00 00 00	5D+  93, 93, 93, 93, 93, 93, 93, 93, 10
   1260	      00 00 00 00 5D 00	00+
   1261	      00 0A 5D 5D 5D 5D	5D+
   1262	      5D 5D 5D 0A
1  1263	29BB  0A 5C 5C 5C 5C 5C	5C+  db	 10, 92, 92, 92, 92, 92, 92, 92, 92, 92, 10,  0, 93,  0,  0, 91, 91,  0,  0, 93,  0, 10, 92,+
   1264	      5C 5C 5C 0A 00 5D	00+  92, 92, 92, 92, 92, 92, 92, 92, 10
   1265	      00 5B 5B 00 00 5D	00+
   1266	      0A 5C 5C 5C 5C 5C	5C+
   1267	      5C 5C 5C 0A
1  1268	29DB  0A 5B 5B 5B 5B 5B	5B+  db	 10, 91, 91, 91, 91, 91, 91, 91, 91, 91, 91, 10,  0,  0, 91,  0,  0, 91,  0,  0, 10, 91, 91,+
   1269	      5B 5B 5B 5B 0A 00	00+  91, 91, 91, 91, 91, 91, 91, 91, 10
   1270	      5B 00 00 5B 00 00	0A+
   1271	      5B 5B 5B 5B 5B 5B	5B+
   1272	      5B 5B 5B 0A
1  1273	29FB  0A 5B 5B 5B 5B 5B	5B+  db	 10, 91, 91, 91, 91, 91, 91, 91, 91, 91, 91, 10,  0,  0, 91,  0,  0, 91,  0,  0, 10, 91, 91,+
   1274	      5B 5B 5B 5B 0A 00	00+  91, 91, 91, 91, 91, 91, 91, 91, 10
   1275	      5B 00 00 5B 00 00	0A+
   1276	      5B 5B 5B 5B 5B 5B	5B+
   1277	      5B 5B 5B 0A
1  1278	2A1B  0A 5C 5C 5C 5C 5C	5C+  db	 10, 92, 92, 92, 92, 92, 92, 92, 92, 92, 10,  0, 93,  0,  0, 91, 91,  0,  0, 93,  0, 10, 92,+
   1279	      5C 5C 5C 0A 00 5D	00+  92, 92, 92, 92, 92, 92, 92, 92, 10
   1280	      00 5B 5B 00 00 5D	00+
   1281	      0A 5C 5C 5C 5C 5C	5C+
   1282	      5C 5C 5C 0A
1  1283	2A3B  0A 5D 5D 5D 5D 5D	5D+  db	 10, 93, 93, 93, 93, 93, 93, 93, 93, 10,  0,  0,  0, 93,  0,  0,  0,  0, 93,  0,  0,  0, 10,+
   1284	      5D 5D 0A 00 00 00	5D+  93, 93, 93, 93, 93, 93, 93, 93, 10
   1285	      00 00 00 00 5D 00	00+
   1286	      00 0A 5D 5D 5D 5D	5D+
   1287	      5D 5D 5D 0A
1  1288	2A5B  0A 5E 5E 5E 5E 5E	5E+  db	 10, 94, 94, 94, 94, 94, 94, 94, 10, 95,  0,  0,  0,  0, 93,  0,  0, 93,  0,  0,  0,  0, 95,+
   1289	      5E 0A 5F 00 00 00	00+  10, 94, 94, 94, 94, 94, 94, 94, 10
   1290	      5D 00 00 5D 00 00	00+
   1291	      00 5F 0A 5E 5E 5E	5E+
   1292	      5E 5E 5E 0A
1  1293	2A7B  0A 5F 5F 5F 5F 5F	5F+  db	 10, 95, 95, 95, 95, 95, 95, 10,  0,  0, 95,  0,  0,  0,  0, 10, 10,  0,  0,  0,  0, 95,  0,+
   1294	      0A 00 00 5F 00 00	00+  0,	10, 95,	95, 95,	95, 95,	95, 10
   1295	      00 0A 0A 00 00 00	00+
   1296	      5F 00 00 0A 5F 5F	5F+
   1297	      5F 5F 5F 0A
1  1298	2A9B  0A 60 60 60 60 60	0A+  db	 10, 96, 96, 96, 96, 96, 10,  0,  0,  0,  0, 95,  0,  0, 10, 91, 91, 10,  0,  0, 95,  0,  0,+
   1299	      00 00 00 00 5F 00	00+  0,	 0, 10,	96, 96,	96, 96,	96, 10
   1300	      0A 5B 5B 0A 00 00	5F+
   1301	      00 00 00 00 0A 60	60+
   1302	      60 60 60 0A
1  1303	2ABB  0A 62 62 62 0A 0A	61+  db	 10, 98, 98, 98, 10, 10, 97,  0,  0,  0,  0,  0, 95, 10, 92, 91, 91, 92, 10, 95,  0,  0,  0,+
   1304	      00 00 00 00 00 5F	0A+  0,	 0, 97,	10, 10,	98, 98,	98, 10
   1305	      5C 5B 5B 5C 0A 5F	00+
   1306	      00 00 00 00 61 0A	0A+
   1307	      62 62 62 0A
1  1308	2ADB  0A 64 64 0A 00 00	00+  db	 10,100,100, 10,  0,  0,  0, 97,  0,  0,  0,  0, 10, 93, 92, 91, 91, 92, 93, 10,  0,  0,  0,+
   1309	      61 00 00 00 00 0A	5D+  0,	97,  0,	 0,  0,	10,100,100, 10
   1310	      5C 5B 5B 5C 5D 0A	00+
   1311	      00 00 00 61 00 00	00+
Turbo Assembler	 Version 3.2	    03/09/00 02:20:48	    Page 24
my.asm



   1312	      0A 64 64 0A
1  1313	2AFB  0A 64 0A 00 00 00	00+  db	 10,100, 10,  0,  0,  0,  0,  0, 97,  0,  0, 10, 94, 93, 92, 91, 91, 92, 93, 94, 10,  0,  0,+
   1314	      00 61 00 00 0A 5E	5D+  97,  0,  0,  0,  0,  0, 10,100, 10
   1315	      5C 5B 5B 5C 5D 5E	0A+
   1316	      00 00 61 00 00 00	00+
   1317	      00 0A 64 0A
1  1318	2B1B  0A 0A 63 00 00 00	00+  db	 10, 10, 99,  0,  0,  0,  0,  0,  0, 97, 10, 95, 94, 93, 93, 91, 91, 92, 93, 94, 95, 10, 97,+
   1319	      00 00 61 0A 5F 5E	5D+  0,	 0,  0,	 0,  0,	 0, 99,	10, 10
   1320	      5D 5B 5B 5C 5D 5E	5F+
   1321	      0A 61 00 00 00 00	00+
   1322	      00 63 0A 0A
1  1323	2B3B  0A 0A 00 63 00 00	00+  db	 10, 10,  0, 99,  0,  0,  0,  0,  0, 10, 96, 95, 94, 93, 93, 91, 91, 92, 93, 94, 95, 96, 10,+
   1324	      00 00 0A 60 5F 5E	5D+  0,	 0,  0,	 0,  0,	99,  0,	10, 10
   1325	      5D 5B 5B 5C 5D 5E	5F+
   1326	      60 0A 00 00 00 00	00+
   1327	      63 00 0A 0A
1  1328	2B5B  0A 00 00 00 63 00	00+  db	 10,  0,  0,  0, 99,  0,  0,  0,  0, 10, 96, 95, 94, 93, 92, 91, 91, 92, 93, 94, 95, 96, 10,+
   1329	      00 00 0A 60 5F 5E	5D+  0,	 0,  0,	 0, 99,	 0,  0,	 0, 10
   1330	      5C 5B 5B 5C 5D 5E	5F+
   1331	      60 0A 00 00 00 00	63+
   1332	      00 00 00 0A
1  1333	2B7B  00 00 00 00 00 63	00+  db	  0,  0,  0,  0,  0, 99,  0,  0, 10, 98, 96, 95, 94, 93, 92, 91, 91, 92, 93, 94, 95, 96, 98,+
   1334	      00 0A 62 60 5F 5E	5D+  10,  0,  0, 99,  0,  0,  0,  0,  0
   1335	      5C 5B 5B 5C 5D 5E	5F+
   1336	      60 62 0A 00 00 63	00+
   1337	      00 00 00 00
1  1338	2B9B  00 00 00 00 00 00	63+  db	  0,  0,  0,  0,  0,  0, 99, 10,100, 98, 96, 95, 94, 93, 92, 91, 91, 92, 93, 94, 95, 96, 98,+
   1339	      0A 64 62 60 5F 5E	5D+  100, 10, 99,  0,  0,  0,  0,  0,  0
   1340	      5C 5B 5B 5C 5D 5E	5F+
   1341	      60 62 64 0A 63 00	00+
   1342	      00 00 00 00
1  1343	2BBB  00 00 00 00 00 0A	0A+  db	  0,  0,  0,  0,  0, 10, 10,100,100, 98, 96, 95, 94, 93, 92, 91, 91, 92, 93, 94, 95, 96, 98,+
   1344	      64 64 62 60 5F 5E	5D+  100,100, 10, 10,  0,  0,  0,  0,  0
   1345	      5C 5B 5B 5C 5D 5E	5F+
   1346	      60 62 64 64 0A 0A	00+
   1347	      00 00 00 00
1  1348	2BDB  00 00 00 00 0A 0A	0A+  db	  0,  0,  0,  0, 10, 10, 10, 10, 10, 10, 10, 10, 10, 10, 10, 10, 91, 10, 10, 10, 10, 10, 10,+
   1349	      0A 0A 0A 0A 0A 0A	0A+  10, 10, 10, 10, 10,  0,  0,  0,  0
   1350	      0A 0A 5B 0A 0A 0A	0A+
   1351	      0A 0A 0A 0A 0A 0A	0A+
   1352	      00 00 00 00
1  1353
   1354						     include Arrowu.asm
1  1355	2BFB  00 00 10 00	     ArrowUp	     db	     0,0,16,0
1  1356	2BFF  00 00 00 00 00 00	00+  db	  0,  0,  0,  0,  0,  0,  0,  0,  0,  0,  0,  0,  0,  0,  0,  0, 31,  0,  0,  0,  0,  0,  0,+
   1357	      00 00 00 00 00 00	00+  0,	 0,  0,	 0,  0,	 0,  0,	 0,  0
   1358	      00 00 1F 00 00 00	00+
   1359	      00 00 00 00 00 00	00+
   1360	      00 00 00 00
1  1361	2C1F  00 00 00 00 00 00	00+  db	  0,  0,  0,  0,  0,  0,  0,  0,  0,  0,  0,  0,  0,  0,  0, 31, 21, 31,  0,  0,  0,  0,  0,+
   1362	      00 00 00 00 00 00	00+  0,	 0,  0,	 0,  0,	 0,  0,	 0,  0
   1363	      00 1F 15 1F 00 00	00+
   1364	      00 00 00 00 00 00	00+
   1365	      00 00 00 00
1  1366	2C3F  00 00 00 00 00 00	00+  db	  0,  0,  0,  0,  0,  0,  0,  0,  0,  0,  0,  0,  0,  0, 31, 21, 15, 21, 31,  0,  0,  0,  0,+
   1367	      00 00 00 00 00 00	00+  0,	 0,  0,	 0,  0,	 0,  0,	 0,  0
   1368	      1F 15 0F 15 1F 00	00+
Turbo Assembler	 Version 3.2	    03/09/00 02:20:48	    Page 25
my.asm



   1369	      00 00 00 00 00 00	00+
   1370	      00 00 00 00
1  1371	2C5F  00 00 00 00 00 00	00+  db	  0,  0,  0,  0,  0,  0,  0,  0,  0,  0,  0,  0,  0, 31, 21, 15, 15, 15, 21, 31,  0,  0,  0,+
   1372	      00 00 00 00 00 00	1F+  0,	 0,  0,	 0,  0,	 0,  0,	 0,  0
   1373	      15 0F 0F 0F 15 1F	00+
   1374	      00 00 00 00 00 00	00+
   1375	      00 00 00 00
1  1376	2C7F  00 00 00 00 00 00	00+  db	  0,  0,  0,  0,  0,  0,  0,  0,  0,  0,  0,  0, 31, 21, 15, 15, 15, 15, 15, 21, 31,  0,  0,+
   1377	      00 00 00 00 00 1F	15+  0,	 0,  0,	 0,  0,	 0,  0,	 0,  0
   1378	      0F 0F 0F 0F 0F 15	1F+
   1379	      00 00 00 00 00 00	00+
   1380	      00 00 00 00
1  1381	2C9F  00 00 00 00 00 00	00+  db	  0,  0,  0,  0,  0,  0,  0,  0,  0,  0,  0, 31, 21, 15, 15, 15, 15, 15, 15, 15, 21, 31,  0,+
   1382	      00 00 00 00 1F 15	0F+  0,	 0,  0,	 0,  0,	 0,  0,	 0,  0
   1383	      0F 0F 0F 0F 0F 0F	15+
   1384	      1F 00 00 00 00 00	00+
   1385	      00 00 00 00
1  1386	2CBF  00 00 00 00 00 00	00+  db	  0,  0,  0,  0,  0,  0,  0,  0,  0,  0, 31, 21, 15, 15, 15, 15, 15, 15, 15, 15, 15, 21, 31,+
   1387	      00 00 00 1F 15 0F	0F+  0,	 0,  0,	 0,  0,	 0,  0,	 0,  0
   1388	      0F 0F 0F 0F 0F 0F	0F+
   1389	      15 1F 00 00 00 00	00+
   1390	      00 00 00 00
1  1391	2CDF  00 00 00 00 00 00	00+  db	  0,  0,  0,  0,  0,  0,  0,  0,  0, 31, 21, 15, 15, 15, 15, 15, 15, 15, 15, 15, 15, 15, 21,+
   1392	      00 00 1F 15 0F 0F	0F+  31,  0,  0,  0,  0,  0,  0,  0,  0
   1393	      0F 0F 0F 0F 0F 0F	0F+
   1394	      0F 15 1F 00 00 00	00+
   1395	      00 00 00 00
1  1396	2CFF  00 00 00 00 00 00	00+  db	  0,  0,  0,  0,  0,  0,  0,  0, 31, 21, 15, 15, 15, 15, 15, 15, 15, 15, 15, 15, 15, 15, 15,+
   1397	      00 1F 15 0F 0F 0F	0F+  21, 31,  0,  0,  0,  0,  0,  0,  0
   1398	      0F 0F 0F 0F 0F 0F	0F+
   1399	      0F 0F 15 1F 00 00	00+
   1400	      00 00 00 00
1  1401	2D1F  00 00 00 00 00 00	00+  db	  0,  0,  0,  0,  0,  0,  0, 31, 21, 15, 15, 15, 15, 15, 15, 15, 15, 15, 15, 15, 15, 15, 15,+
   1402	      1F 15 0F 0F 0F 0F	0F+  15, 21, 31,  0,  0,  0,  0,  0,  0
   1403	      0F 0F 0F 0F 0F 0F	0F+
   1404	      0F 0F 0F 15 1F 00	00+
   1405	      00 00 00 00
1  1406	2D3F  00 00 00 00 00 00	1F+  db	  0,  0,  0,  0,  0,  0, 31, 21, 15, 15, 15, 15, 15, 15, 15, 15, 15, 15, 15, 15, 15, 15, 15,+
   1407	      15 0F 0F 0F 0F 0F	0F+  15, 15, 21, 31,  0,  0,  0,  0,  0
   1408	      0F 0F 0F 0F 0F 0F	0F+
   1409	      0F 0F 0F 0F 15 1F	00+
   1410	      00 00 00 00
1  1411	2D5F  00 00 00 00 00 1F	15+  db	  0,  0,  0,  0,  0, 31, 21, 15, 15, 15, 15, 15, 15, 15, 15, 15, 15, 15, 15, 15, 15, 15, 15,+
   1412	      0F 0F 0F 0F 0F 0F	0F+  15, 15, 15, 21, 31,  0,  0,  0,  0
   1413	      0F 0F 0F 0F 0F 0F	0F+
   1414	      0F 0F 0F 0F 0F 15	1F+
   1415	      00 00 00 00
1  1416	2D7F  00 00 00 00 1F 15	0F+  db	  0,  0,  0,  0, 31, 21, 15, 15, 15, 15, 15, 15, 15, 15, 15, 15, 15, 15, 15, 15, 15, 15, 15,+
   1417	      0F 0F 0F 0F 0F 0F	0F+  15, 15, 15, 15, 21, 32,  0,  0,  0
   1418	      0F 0F 0F 0F 0F 0F	0F+
   1419	      0F 0F 0F 0F 0F 0F	15+
   1420	      20 00 00 00
1  1421	2D9F  00 00 00 1F 15 0F	0F+  db	  0,  0,  0, 31, 21, 15, 15, 15, 15, 15, 15, 15, 15, 15, 15, 15, 15, 15, 15, 15, 15, 15, 15,+
   1422	      0F 0F 0F 0F 0F 0F	0F+  15, 15, 15, 15, 15, 21, 31,  0,  0
   1423	      0F 0F 0F 0F 0F 0F	0F+
   1424	      0F 0F 0F 0F 0F 0F	0F+
   1425	      15 1F 00 00
Turbo Assembler	 Version 3.2	    03/09/00 02:20:48	    Page 26
my.asm



1  1426	2DBF  00 00 1F 15 0F 0F	0F+  db	  0,  0, 31, 21, 15, 15, 15, 15, 15, 15, 15, 15, 15, 15, 15, 15, 15, 15, 15, 15, 15, 15, 15,+
   1427	      0F 0F 0F 0F 0F 0F	0F+  15, 15, 15, 15, 15, 15, 21, 31,  0
   1428	      0F 0F 0F 0F 0F 0F	0F+
   1429	      0F 0F 0F 0F 0F 0F	0F+
   1430	      0F 15 1F 00
1  1431	2DDF  00 1F 15 15 15 15	15+  db	  0, 31, 21, 21, 21, 21, 21, 21, 21, 21, 21, 20, 15, 15, 15, 15, 15, 15, 15, 15, 15, 20, 21,+
   1432	      15 15 15 15 14 0F	0F+  21, 21, 21, 21, 21, 21, 21, 21, 31
   1433	      0F 0F 0F 0F 0F 0F	0F+
   1434	      14 15 15 15 15 15	15+
   1435	      15 15 15 1F
1  1436	2DFF  00 1F 1F 1F 1F 1F	1F+  db	  0, 31, 31, 31, 31, 31, 31, 31, 31, 31, 31, 20, 15, 15, 15, 15, 15, 15, 15, 15, 15, 20, 31,+
   1437	      1F 1F 1F 1F 14 0F	0F+  31, 31, 31, 31, 31, 31, 31, 31, 31
   1438	      0F 0F 0F 0F 0F 0F	0F+
   1439	      14 1F 1F 1F 1F 1F	1F+
   1440	      1F 1F 1F 1F
1  1441	2E1F  00 00 00 00 00 00	00+  db	  0,  0,  0,  0,  0,  0,  0,  0,  0,  0, 30, 20, 15, 15, 15, 15, 15, 15, 15, 15, 15, 20, 30,+
   1442	      00 00 00 1E 14 0F	0F+  0,	 0,  0,	 0,  0,	 0,  0,	 0,  0
   1443	      0F 0F 0F 0F 0F 0F	0F+
   1444	      14 1E 00 00 00 00	00+
   1445	      00 00 00 00
1  1446	2E3F  00 00 00 00 00 00	00+  db	  0,  0,  0,  0,  0,  0,  0,  0,  0,  0, 30, 20, 15, 15, 15, 15, 15, 15, 15, 15, 15, 20, 30,+
   1447	      00 00 00 1E 14 0F	0F+  0,	 0,  0,	 0,  0,	 0,  0,	 0,  0
   1448	      0F 0F 0F 0F 0F 0F	0F+
   1449	      14 1E 00 00 00 00	00+
   1450	      00 00 00 00
1  1451	2E5F  00 00 00 00 00 00	00+  db	  0,  0,  0,  0,  0,  0,  0,  0,  0,  0, 30, 20, 15, 15, 15, 15, 15, 15, 15, 15, 15, 20, 30,+
   1452	      00 00 00 1E 14 0F	0F+  0,	 0,  0,	 0,  0,	 0,  0,	 0,  0
   1453	      0F 0F 0F 0F 0F 0F	0F+
   1454	      14 1E 00 00 00 00	00+
   1455	      00 00 00 00
1  1456	2E7F  00 00 00 00 00 00	00+  db	  0,  0,  0,  0,  0,  0,  0,  0,  0,  0, 30, 20, 15, 15, 15, 15, 15, 15, 15, 15, 15, 20, 30,+
   1457	      00 00 00 1E 14 0F	0F+  0,	 0,  0,	 0,  0,	 0,  0,	 0,  0
   1458	      0F 0F 0F 0F 0F 0F	0F+
   1459	      14 1E 00 00 00 00	00+
   1460	      00 00 00 00
1  1461	2E9F  00 00 00 00 00 00	00+  db	  0,  0,  0,  0,  0,  0,  0,  0,  0,  0, 30, 20, 15, 15, 15, 15, 15, 15, 15, 15, 15, 20, 30,+
   1462	      00 00 00 1E 14 0F	0F+  0,	 0,  0,	 0,  0,	 0,  0,	 0,  0
   1463	      0F 0F 0F 0F 0F 0F	0F+
   1464	      14 1E 00 00 00 00	00+
   1465	      00 00 00 00
1  1466	2EBF  00 00 00 00 00 00	00+  db	  0,  0,  0,  0,  0,  0,  0,  0,  0,  0, 30, 20, 15, 15, 15, 15, 15, 15, 15, 15, 15, 20, 30,+
   1467	      00 00 00 1E 14 0F	0F+  0,	 0,  0,	 0,  0,	 0,  0,	 0,  0
   1468	      0F 0F 0F 0F 0F 0F	0F+
   1469	      14 1E 00 00 00 00	00+
   1470	      00 00 00 00
1  1471	2EDF  00 00 00 00 00 00	00+  db	  0,  0,  0,  0,  0,  0,  0,  0,  0,  0, 30, 20, 15, 15, 15, 15, 15, 15, 15, 15, 15, 20, 30,+
   1472	      00 00 00 1E 14 0F	0F+  0,	 0,  0,	 0,  0,	 0,  0,	 0,  0
   1473	      0F 0F 0F 0F 0F 0F	0F+
   1474	      14 1E 00 00 00 00	00+
   1475	      00 00 00 00
1  1476	2EFF  00 00 00 00 00 00	00+  db	  0,  0,  0,  0,  0,  0,  0,  0,  0,  0, 30, 20, 15, 15, 15, 15, 15, 15, 15, 15, 15, 20, 30,+
   1477	      00 00 00 1E 14 0F	0F+  0,	 0,  0,	 0,  0,	 0,  0,	 0,  0
   1478	      0F 0F 0F 0F 0F 0F	0F+
   1479	      14 1E 00 00 00 00	00+
   1480	      00 00 00 00
1  1481	2F1F  00 00 00 00 00 00	00+  db	  0,  0,  0,  0,  0,  0,  0,  0,  0,  0, 30, 20, 20, 20, 20, 20, 20, 20, 20, 20, 20, 20, 30,+
   1482	      00 00 00 1E 14 14	14+  0,	 0,  0,	 0,  0,	 0,  0,	 0,  0
Turbo Assembler	 Version 3.2	    03/09/00 02:20:48	    Page 27
my.asm



   1483	      14 14 14 14 14 14	14+
   1484	      14 1E 00 00 00 00	00+
   1485	      00 00 00 00
1  1486	2F3F  00 00 00 00 00 00	00+  db	  0,  0,  0,  0,  0,  0,  0,  0,  0,  0, 30, 30, 30, 30, 30, 30, 30, 30, 30, 30, 30, 30, 30,+
   1487	      00 00 00 1E 1E 1E	1E+  0,	 0,  0,	 0,  0,	 0,  0,	 0,  0
   1488	      1E 1E 1E 1E 1E 1E	1E+
   1489	      1E 1E 00 00 00 00	00+
   1490	      00 00 00 00
1  1491	2F5F  00 00 00 00 00 00	00+  db	  0,  0,  0,  0,  0,  0,  0,  0,  0,  0,  0,  0,  0,  0,  0,  0,  0,  0,  0,  0,  0,  0,  0,+
   1492	      00 00 00 00 00 00	00+  0,	 0,  0,	 0,  0,	 0,  0,	 0,  0
   1493	      00 00 00 00 00 00	00+
   1494	      00 00 00 00 00 00	00+
   1495	      00 00 00 00
1  1496	2F7F  00 00 00 00 00 00	00+  db	  0,  0,  0,  0,  0,  0,  0,  0,  0,  0,  0,  0,  0,  0,  0,  0,  0,  0,  0,  0,  0,  0,  0,+
   1497	      00 00 00 00 00 00	00+  0,	 0,  0,	 0,  0,	 0,  0,	 0,  0
   1498	      00 00 00 00 00 00	00+
   1499	      00 00 00 00 00 00	00+
   1500	      00 00 00 00
1  1501	2F9F  00 00 00 00 00 00	00+  db	  0,  0,  0,  0,  0,  0,  0,  0,  0,  0,  0,  0,  0,  0,  0,  0,  0,  0,  0,  0,  0,  0,  0,+
   1502	      00 00 00 00 00 00	00+  0,	 0,  0,	 0,  0,	 0,  0,	 0,  0
   1503	      00 00 00 00 00 00	00+
   1504	      00 00 00 00 00 00	00+
   1505	      00 00 00 00
1  1506	2FBF  00 00 00 00 00 00	00+  db	  0,  0,  0,  0,  0,  0,  0,  0,  0,  0,  0,  0,  0,  0,  0,  0,  0,  0,  0,  0,  0,  0,  0,+
   1507	      00 00 00 00 00 00	00+  0,	 0,  0,	 0,  0,	 0,  0,	 0,  0
   1508	      00 00 00 00 00 00	00+
   1509	      00 00 00 00 00 00	00+
   1510	      00 00 00 00
1  1511	2FDF  00 00 00 00 00 00	00+  db	  0,  0,  0,  0,  0,  0,  0,  0,  0,  0,  0,  0,  0,  0,  0,  0,  0,  0,  0,  0,  0,  0,  0,+
   1512	      00 00 00 00 00 00	00+  0,	 0,  0,	 0,  0,	 0,  0,	 0,  0
   1513	      00 00 00 00 00 00	00+
   1514	      00 00 00 00 00 00	00+
   1515	      00 00 00 00
1  1516
   1517						     include Arrowd.asm
1  1518	2FFF  00 00 10 20	     ArrowDown	     db	     0,0,16,32
1  1519	3003  00 00 00 00 00 00	00+  db	  0,  0,  0,  0,  0,  0,  0,  0,  0,  0,  0,  0,  0,  0,  0,  0,  0,  0,  0,  0,  0,  0,  0,+
   1520	      00 00 00 00 00 00	00+  0,	 0,  0,	 0,  0,	 0,  0,	 0,  0
   1521	      00 00 00 00 00 00	00+
   1522	      00 00 00 00 00 00	00+
   1523	      00 00 00 00
1  1524	3023  00 00 00 00 00 00	00+  db	  0,  0,  0,  0,  0,  0,  0,  0,  0,  0,  0,  0,  0,  0,  0,  0,  0,  0,  0,  0,  0,  0,  0,+
   1525	      00 00 00 00 00 00	00+  0,	 0,  0,	 0,  0,	 0,  0,	 0,  0
   1526	      00 00 00 00 00 00	00+
   1527	      00 00 00 00 00 00	00+
   1528	      00 00 00 00
1  1529	3043  00 00 00 00 00 00	00+  db	  0,  0,  0,  0,  0,  0,  0,  0,  0,  0,  0,  0,  0,  0,  0,  0,  0,  0,  0,  0,  0,  0,  0,+
   1530	      00 00 00 00 00 00	00+  0,	 0,  0,	 0,  0,	 0,  0,	 0,  0
   1531	      00 00 00 00 00 00	00+
   1532	      00 00 00 00 00 00	00+
   1533	      00 00 00 00
1  1534	3063  00 00 00 00 00 00	00+  db	  0,  0,  0,  0,  0,  0,  0,  0,  0,  0,  0,  0,  0,  0,  0,  0,  0,  0,  0,  0,  0,  0,  0,+
   1535	      00 00 00 00 00 00	00+  0,	 0,  0,	 0,  0,	 0,  0,	 0,  0
   1536	      00 00 00 00 00 00	00+
   1537	      00 00 00 00 00 00	00+
   1538	      00 00 00 00
1  1539	3083  00 00 00 00 00 00	00+  db	  0,  0,  0,  0,  0,  0,  0,  0,  0,  0,  0,  0,  0,  0,  0,  0,  0,  0,  0,  0,  0,  0,  0,+
Turbo Assembler	 Version 3.2	    03/09/00 02:20:48	    Page 28
my.asm



   1540	      00 00 00 00 00 00	00+  0,	 0,  0,	 0,  0,	 0,  0,	 0,  0
   1541	      00 00 00 00 00 00	00+
   1542	      00 00 00 00 00 00	00+
   1543	      00 00 00 00
1  1544	30A3  00 00 00 00 00 00	00+  db	  0,  0,  0,  0,  0,  0,  0,  0,  0,  0,  0,  0,  0,  0,  0,  0,  0,  0,  0,  0,  0,  0,  0,+
   1545	      00 00 00 00 00 00	00+  0,	 0,  0,	 0,  0,	 0,  0,	 0,  0
   1546	      00 00 00 00 00 00	00+
   1547	      00 00 00 00 00 00	00+
   1548	      00 00 00 00
1  1549	30C3  00 00 00 00 00 00	00+  db	  0,  0,  0,  0,  0,  0,  0,  0,  0,  0, 30, 30, 30, 30, 30, 30, 30, 30, 30, 30, 30, 30, 30,+
   1550	      00 00 00 1E 1E 1E	1E+  0,	 0,  0,	 0,  0,	 0,  0,	 0,  0
   1551	      1E 1E 1E 1E 1E 1E	1E+
   1552	      1E 1E 00 00 00 00	00+
   1553	      00 00 00 00
1  1554	30E3  00 00 00 00 00 00	00+  db	  0,  0,  0,  0,  0,  0,  0,  0,  0,  0, 30, 20, 20, 20, 20, 20, 20, 20, 20, 20, 20, 20, 30,+
   1555	      00 00 00 1E 14 14	14+  0,	 0,  0,	 0,  0,	 0,  0,	 0,  0
   1556	      14 14 14 14 14 14	14+
   1557	      14 1E 00 00 00 00	00+
   1558	      00 00 00 00
1  1559	3103  00 00 00 00 00 00	00+  db	  0,  0,  0,  0,  0,  0,  0,  0,  0,  0, 30, 20, 15, 15, 15, 15, 15, 15, 15, 15, 15, 20, 30,+
   1560	      00 00 00 1E 14 0F	0F+  0,	 0,  0,	 0,  0,	 0,  0,	 0,  0
   1561	      0F 0F 0F 0F 0F 0F	0F+
   1562	      14 1E 00 00 00 00	00+
   1563	      00 00 00 00
1  1564	3123  00 00 00 00 00 00	00+  db	  0,  0,  0,  0,  0,  0,  0,  0,  0,  0, 30, 20, 15, 15, 15, 15, 15, 15, 15, 15, 15, 20, 30,+
   1565	      00 00 00 1E 14 0F	0F+  0,	 0,  0,	 0,  0,	 0,  0,	 0,  0
   1566	      0F 0F 0F 0F 0F 0F	0F+
   1567	      14 1E 00 00 00 00	00+
   1568	      00 00 00 00
1  1569	3143  00 00 00 00 00 00	00+  db	  0,  0,  0,  0,  0,  0,  0,  0,  0,  0, 30, 20, 15, 15, 15, 15, 15, 15, 15, 15, 15, 20, 30,+
   1570	      00 00 00 1E 14 0F	0F+  0,	 0,  0,	 0,  0,	 0,  0,	 0,  0
   1571	      0F 0F 0F 0F 0F 0F	0F+
   1572	      14 1E 00 00 00 00	00+
   1573	      00 00 00 00
1  1574	3163  00 00 00 00 00 00	00+  db	  0,  0,  0,  0,  0,  0,  0,  0,  0,  0, 30, 20, 15, 15, 15, 15, 15, 15, 15, 15, 15, 20, 30,+
   1575	      00 00 00 1E 14 0F	0F+  0,	 0,  0,	 0,  0,	 0,  0,	 0,  0
   1576	      0F 0F 0F 0F 0F 0F	0F+
   1577	      14 1E 00 00 00 00	00+
   1578	      00 00 00 00
1  1579	3183  00 00 00 00 00 00	00+  db	  0,  0,  0,  0,  0,  0,  0,  0,  0,  0, 30, 20, 15, 15, 15, 15, 15, 15, 15, 15, 15, 20, 30,+
   1580	      00 00 00 1E 14 0F	0F+  0,	 0,  0,	 0,  0,	 0,  0,	 0,  0
   1581	      0F 0F 0F 0F 0F 0F	0F+
   1582	      14 1E 00 00 00 00	00+
   1583	      00 00 00 00
1  1584	31A3  00 00 00 00 00 00	00+  db	  0,  0,  0,  0,  0,  0,  0,  0,  0,  0, 30, 20, 15, 15, 15, 15, 15, 15, 15, 15, 15, 20, 30,+
   1585	      00 00 00 1E 14 0F	0F+  0,	 0,  0,	 0,  0,	 0,  0,	 0,  0
   1586	      0F 0F 0F 0F 0F 0F	0F+
   1587	      14 1E 00 00 00 00	00+
   1588	      00 00 00 00
1  1589	31C3  00 00 00 00 00 00	00+  db	  0,  0,  0,  0,  0,  0,  0,  0,  0,  0, 30, 20, 15, 15, 15, 15, 15, 15, 15, 15, 15, 20, 30,+
   1590	      00 00 00 1E 14 0F	0F+  0,	 0,  0,	 0,  0,	 0,  0,	 0,  0
   1591	      0F 0F 0F 0F 0F 0F	0F+
   1592	      14 1E 00 00 00 00	00+
   1593	      00 00 00 00
1  1594	31E3  00 00 00 00 00 00	00+  db	  0,  0,  0,  0,  0,  0,  0,  0,  0,  0, 30, 20, 15, 15, 15, 15, 15, 15, 15, 15, 15, 20, 30,+
   1595	      00 00 00 1E 14 0F	0F+  0,	 0,  0,	 0,  0,	 0,  0,	 0,  0
   1596	      0F 0F 0F 0F 0F 0F	0F+
Turbo Assembler	 Version 3.2	    03/09/00 02:20:48	    Page 29
my.asm



   1597	      14 1E 00 00 00 00	00+
   1598	      00 00 00 00
1  1599	3203  00 1F 1F 1F 1F 1F	1F+  db	  0, 31, 31, 31, 31, 31, 31, 31, 31, 31, 31, 20, 15, 15, 15, 15, 15, 15, 15, 15, 15, 20, 31,+
   1600	      1F 1F 1F 1F 14 0F	0F+  31, 31, 31, 31, 31, 31, 31, 31, 31
   1601	      0F 0F 0F 0F 0F 0F	0F+
   1602	      14 1F 1F 1F 1F 1F	1F+
   1603	      1F 1F 1F 1F
1  1604	3223  00 1F 15 15 15 15	15+  db	  0, 31, 21, 21, 21, 21, 21, 21, 21, 21, 21, 20, 15, 15, 15, 15, 15, 15, 15, 15, 15, 20, 21,+
   1605	      15 15 15 15 14 0F	0F+  21, 21, 21, 21, 21, 21, 21, 21, 31
   1606	      0F 0F 0F 0F 0F 0F	0F+
   1607	      14 15 15 15 15 15	15+
   1608	      15 15 15 1F
1  1609	3243  00 00 1F 15 0F 0F	0F+  db	  0,  0, 31, 21, 15, 15, 15, 15, 15, 15, 15, 15, 15, 15, 15, 15, 15, 15, 15, 15, 15, 15, 15,+
   1610	      0F 0F 0F 0F 0F 0F	0F+  15, 15, 15, 15, 15, 15, 21, 31,  0
   1611	      0F 0F 0F 0F 0F 0F	0F+
   1612	      0F 0F 0F 0F 0F 0F	0F+
   1613	      0F 15 1F 00
1  1614	3263  00 00 00 1F 15 0F	0F+  db	  0,  0,  0, 31, 21, 15, 15, 15, 15, 15, 15, 15, 15, 15, 15, 15, 15, 15, 15, 15, 15, 15, 15,+
   1615	      0F 0F 0F 0F 0F 0F	0F+  15, 15, 15, 15, 15, 21, 31,  0,  0
   1616	      0F 0F 0F 0F 0F 0F	0F+
   1617	      0F 0F 0F 0F 0F 0F	0F+
   1618	      15 1F 00 00
1  1619	3283  00 00 00 00 1F 15	0F+  db	  0,  0,  0,  0, 31, 21, 15, 15, 15, 15, 15, 15, 15, 15, 15, 15, 15, 15, 15, 15, 15, 15, 15,+
   1620	      0F 0F 0F 0F 0F 0F	0F+  15, 15, 15, 15, 21, 32,  0,  0,  0
   1621	      0F 0F 0F 0F 0F 0F	0F+
   1622	      0F 0F 0F 0F 0F 0F	15+
   1623	      20 00 00 00
1  1624	32A3  00 00 00 00 00 1F	15+  db	  0,  0,  0,  0,  0, 31, 21, 15, 15, 15, 15, 15, 15, 15, 15, 15, 15, 15, 15, 15, 15, 15, 15,+
   1625	      0F 0F 0F 0F 0F 0F	0F+  15, 15, 15, 21, 31,  0,  0,  0,  0
   1626	      0F 0F 0F 0F 0F 0F	0F+
   1627	      0F 0F 0F 0F 0F 15	1F+
   1628	      00 00 00 00
1  1629	32C3  00 00 00 00 00 00	1F+  db	  0,  0,  0,  0,  0,  0, 31, 21, 15, 15, 15, 15, 15, 15, 15, 15, 15, 15, 15, 15, 15, 15, 15,+
   1630	      15 0F 0F 0F 0F 0F	0F+  15, 15, 21, 31,  0,  0,  0,  0,  0
   1631	      0F 0F 0F 0F 0F 0F	0F+
   1632	      0F 0F 0F 0F 15 1F	00+
   1633	      00 00 00 00
1  1634	32E3  00 00 00 00 00 00	00+  db	  0,  0,  0,  0,  0,  0,  0, 31, 21, 15, 15, 15, 15, 15, 15, 15, 15, 15, 15, 15, 15, 15, 15,+
   1635	      1F 15 0F 0F 0F 0F	0F+  15, 21, 31,  0,  0,  0,  0,  0,  0
   1636	      0F 0F 0F 0F 0F 0F	0F+
   1637	      0F 0F 0F 15 1F 00	00+
   1638	      00 00 00 00
1  1639	3303  00 00 00 00 00 00	00+  db	  0,  0,  0,  0,  0,  0,  0,  0, 31, 21, 15, 15, 15, 15, 15, 15, 15, 15, 15, 15, 15, 15, 15,+
   1640	      00 1F 15 0F 0F 0F	0F+  21, 31,  0,  0,  0,  0,  0,  0,  0
   1641	      0F 0F 0F 0F 0F 0F	0F+
   1642	      0F 0F 15 1F 00 00	00+
   1643	      00 00 00 00
1  1644	3323  00 00 00 00 00 00	00+  db	  0,  0,  0,  0,  0,  0,  0,  0,  0, 31, 21, 15, 15, 15, 15, 15, 15, 15, 15, 15, 15, 15, 21,+
   1645	      00 00 1F 15 0F 0F	0F+  31,  0,  0,  0,  0,  0,  0,  0,  0
   1646	      0F 0F 0F 0F 0F 0F	0F+
   1647	      0F 15 1F 00 00 00	00+
   1648	      00 00 00 00
1  1649	3343  00 00 00 00 00 00	00+  db	  0,  0,  0,  0,  0,  0,  0,  0,  0,  0, 31, 21, 15, 15, 15, 15, 15, 15, 15, 15, 15, 21, 31,+
   1650	      00 00 00 1F 15 0F	0F+  0,	 0,  0,	 0,  0,	 0,  0,	 0,  0
   1651	      0F 0F 0F 0F 0F 0F	0F+
   1652	      15 1F 00 00 00 00	00+
   1653	      00 00 00 00
Turbo Assembler	 Version 3.2	    03/09/00 02:20:48	    Page 30
my.asm



1  1654	3363  00 00 00 00 00 00	00+  db	  0,  0,  0,  0,  0,  0,  0,  0,  0,  0,  0, 31, 21, 15, 15, 15, 15, 15, 15, 15, 21, 31,  0,+
   1655	      00 00 00 00 1F 15	0F+  0,	 0,  0,	 0,  0,	 0,  0,	 0,  0
   1656	      0F 0F 0F 0F 0F 0F	15+
   1657	      1F 00 00 00 00 00	00+
   1658	      00 00 00 00
1  1659	3383  00 00 00 00 00 00	00+  db	  0,  0,  0,  0,  0,  0,  0,  0,  0,  0,  0,  0, 31, 21, 15, 15, 15, 15, 15, 21, 31,  0,  0,+
   1660	      00 00 00 00 00 1F	15+  0,	 0,  0,	 0,  0,	 0,  0,	 0,  0
   1661	      0F 0F 0F 0F 0F 15	1F+
   1662	      00 00 00 00 00 00	00+
   1663	      00 00 00 00
1  1664	33A3  00 00 00 00 00 00	00+  db	  0,  0,  0,  0,  0,  0,  0,  0,  0,  0,  0,  0,  0, 31, 21, 15, 15, 15, 21, 31,  0,  0,  0,+
   1665	      00 00 00 00 00 00	1F+  0,	 0,  0,	 0,  0,	 0,  0,	 0,  0
   1666	      15 0F 0F 0F 15 1F	00+
   1667	      00 00 00 00 00 00	00+
   1668	      00 00 00 00
1  1669	33C3  00 00 00 00 00 00	00+  db	  0,  0,  0,  0,  0,  0,  0,  0,  0,  0,  0,  0,  0,  0, 31, 21, 15, 21, 31,  0,  0,  0,  0,+
   1670	      00 00 00 00 00 00	00+  0,	 0,  0,	 0,  0,	 0,  0,	 0,  0
   1671	      1F 15 0F 15 1F 00	00+
   1672	      00 00 00 00 00 00	00+
   1673	      00 00 00 00
1  1674	33E3  00 00 00 00 00 00	00+  db	  0,  0,  0,  0,  0,  0,  0,  0,  0,  0,  0,  0,  0,  0,  0, 31, 21, 31,  0,  0,  0,  0,  0,+
   1675	      00 00 00 00 00 00	00+  0,	 0,  0,	 0,  0,	 0,  0,	 0,  0
   1676	      00 1F 15 1F 00 00	00+
   1677	      00 00 00 00 00 00	00+
   1678	      00 00 00 00
1  1679
   1680						     include Arrowr.asm
1  1681	3403  00 00 20 10	     ArrowRight	     db	     0,0,32,16
1  1682	3407  00 00 00 00 00 00	00+  db	  0,  0,  0,  0,  0,  0,  0,  0,  0,  0,  0,  0,  0,  0,  0,  0, 32, 32,  0,  0,  0,  0,  0,+
   1683	      00 00 00 00 00 00	00+  0,	 0,  0,	 0,  0,	 0,  0,	 0,  0
   1684	      00 00 20 20 00 00	00+
   1685	      00 00 00 00 00 00	00+
   1686	      00 00 00 00
1  1687	3427  00 00 00 00 00 00	00+  db	  0,  0,  0,  0,  0,  0,  0,  0,  0,  0,  0,  0,  0,  0,  0,  0, 32, 20, 32,  0,  0,  0,  0,+
   1688	      00 00 00 00 00 00	00+  0,	 0,  0,	 0,  0,	 0,  0,	 0,  0
   1689	      00 00 20 14 20 00	00+
   1690	      00 00 00 00 00 00	00+
   1691	      00 00 00 00
1  1692	3447  00 00 00 00 00 00	00+  db	  0,  0,  0,  0,  0,  0,  0,  0,  0,  0,  0,  0,  0,  0,  0,  0, 32, 20, 20, 32,  0,  0,  0,+
   1693	      00 00 00 00 00 00	00+  0,	 0,  0,	 0,  0,	 0,  0,	 0,  0
   1694	      00 00 20 14 14 20	00+
   1695	      00 00 00 00 00 00	00+
   1696	      00 00 00 00
1  1697	3467  00 00 00 00 00 00	00+  db	  0,  0,  0,  0,  0,  0,  0,  0,  0,  0,  0,  0,  0,  0,  0,  0, 32, 20, 15, 20, 32,  0,  0,+
   1698	      00 00 00 00 00 00	00+  0,	 0,  0,	 0,  0,	 0,  0,	 0,  0
   1699	      00 00 20 14 0F 14	20+
   1700	      00 00 00 00 00 00	00+
   1701	      00 00 00 00
1  1702	3487  00 00 00 00 00 00	00+  db	  0,  0,  0,  0,  0,  0,  0,  0,  0,  0,  0,  0,  0,  0,  0,  0, 32, 20, 15, 15, 20, 32,  0,+
   1703	      00 00 00 00 00 00	00+  0,	 0,  0,	 0,  0,	 0,  0,	 0,  0
   1704	      00 00 20 14 0F 0F	14+
   1705	      20 00 00 00 00 00	00+
   1706	      00 00 00 00
1  1707	34A7  00 00 00 00 00 00	00+  db	  0,  0,  0,  0,  0,  0,  0,  0,  0,  0,  0,  0,  0,  0,  0,  0, 32, 20, 15, 15, 15, 20, 32,+
   1708	      00 00 00 00 00 00	00+  0,	 0,  0,	 0,  0,	 0,  0,	 0,  0
   1709	      00 00 20 14 0F 0F	0F+
   1710	      14 20 00 00 00 00	00+
Turbo Assembler	 Version 3.2	    03/09/00 02:20:48	    Page 31
my.asm



   1711	      00 00 00 00
1  1712	34C7  00 00 00 00 00 00	00+  db	  0,  0,  0,  0,  0,  0,  0,  0,  0,  0,  0,  0,  0,  0,  0,  0, 32, 20, 15, 15, 15, 15, 20,+
   1713	      00 00 00 00 00 00	00+  32,  0,  0,  0,  0,  0,  0,  0,  0
   1714	      00 00 20 14 0F 0F	0F+
   1715	      0F 14 20 00 00 00	00+
   1716	      00 00 00 00
1  1717	34E7  00 00 00 00 00 00	00+  db	  0,  0,  0,  0,  0,  0,  0,  0,  0,  0,  0,  0,  0,  0,  0,  0, 32, 20, 15, 15, 15, 15, 15,+
   1718	      00 00 00 00 00 00	00+  20, 32,  0,  0,  0,  0,  0,  0,  0
   1719	      00 00 20 14 0F 0F	0F+
   1720	      0F 0F 14 20 00 00	00+
   1721	      00 00 00 00
1  1722	3507  00 00 00 00 00 00	00+  db	  0,  0,  0,  0,  0,  0,  0,  0,  0,  0,  0,  0,  0,  0,  0,  0, 32, 20, 15, 15, 15, 15, 15,+
   1723	      00 00 00 00 00 00	00+  15, 20, 32,  0,  0,  0,  0,  0,  0
   1724	      00 00 20 14 0F 0F	0F+
   1725	      0F 0F 0F 14 20 00	00+
   1726	      00 00 00 00
1  1727	3527  00 00 00 00 20 20	20+  db	  0,  0,  0,  0, 32, 32, 32, 32, 32, 32, 32, 32, 32, 32, 32, 32, 32, 20, 15, 15, 15, 15, 15,+
   1728	      20 20 20 20 20 20	20+  15, 15, 20, 32,  0,  0,  0,  0,  0
   1729	      20 20 20 14 0F 0F	0F+
   1730	      0F 0F 0F 0F 14 20	00+
   1731	      00 00 00 00
1  1732	3547  00 00 00 00 20 14	14+  db	  0,  0,  0,  0, 32, 20, 20, 20, 20, 20, 20, 20, 20, 20, 20, 20, 20, 20, 15, 15, 15, 15, 15,+
   1733	      14 14 14 14 14 14	14+  15, 15, 15, 20, 32,  0,  0,  0,  0
   1734	      14 14 14 14 0F 0F	0F+
   1735	      0F 0F 0F 0F 0F 14	20+
   1736	      00 00 00 00
1  1737	3567  00 00 00 00 20 14	0F+  db	  0,  0,  0,  0, 32, 20, 15, 15, 15, 15, 15, 15, 15, 15, 15, 15, 15, 15, 15, 15, 15, 15, 15,+
   1738	      0F 0F 0F 0F 0F 0F	0F+  15, 15, 15, 15, 20, 32,  0,  0,  0
   1739	      0F 0F 0F 0F 0F 0F	0F+
   1740	      0F 0F 0F 0F 0F 0F	14+
   1741	      20 00 00 00
1  1742	3587  00 00 00 00 20 14	0F+  db	  0,  0,  0,  0, 32, 20, 15, 15, 15, 15, 15, 15, 15, 15, 15, 15, 15, 15, 15, 15, 15, 15, 15,+
   1743	      0F 0F 0F 0F 0F 0F	0F+  15, 15, 15, 15, 15, 20, 32,  0,  0
   1744	      0F 0F 0F 0F 0F 0F	0F+
   1745	      0F 0F 0F 0F 0F 0F	0F+
   1746	      14 20 00 00
1  1747	35A7  00 00 00 00 20 14	0F+  db	  0,  0,  0,  0, 32, 20, 15, 15, 15, 15, 15, 15, 15, 15, 15, 15, 15, 15, 15, 15, 15, 15, 15,+
   1748	      0F 0F 0F 0F 0F 0F	0F+  15, 15, 15, 15, 15, 15, 20, 32,  0
   1749	      0F 0F 0F 0F 0F 0F	0F+
   1750	      0F 0F 0F 0F 0F 0F	0F+
   1751	      0F 14 20 00
1  1752	35C7  00 00 00 00 20 14	0F+  db	  0,  0,  0,  0, 32, 20, 15, 15, 15, 15, 15, 15, 15, 15, 15, 15, 15, 15, 15, 15, 15, 15, 15,+
   1753	      0F 0F 0F 0F 0F 0F	0F+  15, 15, 15, 15, 15, 15, 15, 20, 32
   1754	      0F 0F 0F 0F 0F 0F	0F+
   1755	      0F 0F 0F 0F 0F 0F	0F+
   1756	      0F 0F 14 20
1  1757	35E7  00 00 00 00 20 14	0F+  db	  0,  0,  0,  0, 32, 20, 15, 15, 15, 15, 15, 15, 15, 15, 15, 15, 15, 15, 15, 15, 15, 15, 15,+
   1758	      0F 0F 0F 0F 0F 0F	0F+  15, 15, 15, 15, 15, 15, 15, 15, 20
   1759	      0F 0F 0F 0F 0F 0F	0F+
   1760	      0F 0F 0F 0F 0F 0F	0F+
   1761	      0F 0F 0F 14
1  1762	3607  00 00 00 00 20 14	0F+  db	  0,  0,  0,  0, 32, 20, 15, 15, 15, 15, 15, 15, 15, 15, 15, 15, 15, 15, 15, 15, 15, 15, 15,+
   1763	      0F 0F 0F 0F 0F 0F	0F+  15, 15, 15, 15, 15, 15, 15, 20, 32
   1764	      0F 0F 0F 0F 0F 0F	0F+
   1765	      0F 0F 0F 0F 0F 0F	0F+
   1766	      0F 0F 14 20
1  1767	3627  00 00 00 00 20 14	0F+  db	  0,  0,  0,  0, 32, 20, 15, 15, 15, 15, 15, 15, 15, 15, 15, 15, 15, 15, 15, 15, 15, 15, 15,+
Turbo Assembler	 Version 3.2	    03/09/00 02:20:48	    Page 32
my.asm



   1768	      0F 0F 0F 0F 0F 0F	0F+  15, 15, 15, 15, 15, 15, 20, 32,  0
   1769	      0F 0F 0F 0F 0F 0F	0F+
   1770	      0F 0F 0F 0F 0F 0F	0F+
   1771	      0F 14 20 00
1  1772	3647  00 00 00 00 20 14	0F+  db	  0,  0,  0,  0, 32, 20, 15, 15, 15, 15, 15, 15, 15, 15, 15, 15, 15, 15, 15, 15, 15, 15, 15,+
   1773	      0F 0F 0F 0F 0F 0F	0F+  15, 15, 15, 15, 15, 20, 32,  0,  0
   1774	      0F 0F 0F 0F 0F 0F	0F+
   1775	      0F 0F 0F 0F 0F 0F	0F+
   1776	      14 20 00 00
1  1777	3667  00 00 00 00 20 14	0F+  db	  0,  0,  0,  0, 32, 20, 15, 15, 15, 15, 15, 15, 15, 15, 15, 15, 15, 15, 15, 15, 15, 15, 15,+
   1778	      0F 0F 0F 0F 0F 0F	0F+  15, 15, 15, 15, 20, 32,  0,  0,  0
   1779	      0F 0F 0F 0F 0F 0F	0F+
   1780	      0F 0F 0F 0F 0F 0F	14+
   1781	      20 00 00 00
1  1782	3687  00 00 00 00 20 14	14+  db	  0,  0,  0,  0, 32, 20, 20, 20, 20, 20, 20, 20, 20, 20, 20, 20, 20, 20, 15, 15, 15, 15, 15,+
   1783	      14 14 14 14 14 14	14+  15, 15, 15, 20, 32,  0,  0,  0,  0
   1784	      14 14 14 14 0F 0F	0F+
   1785	      0F 0F 0F 0F 0F 14	20+
   1786	      00 00 00 00
1  1787	36A7  00 00 00 00 20 20	20+  db	  0,  0,  0,  0, 32, 32, 32, 32, 32, 32, 32, 32, 32, 32, 32, 32, 32, 20, 15, 15, 15, 15, 15,+
   1788	      20 20 20 20 20 20	20+  15, 15, 20, 32,  0,  0,  0,  0,  0
   1789	      20 20 20 14 0F 0F	0F+
   1790	      0F 0F 0F 0F 14 20	00+
   1791	      00 00 00 00
1  1792	36C7  00 00 00 00 00 00	00+  db	  0,  0,  0,  0,  0,  0,  0,  0,  0,  0,  0,  0,  0,  0,  0,  0, 32, 20, 15, 15, 15, 15, 15,+
   1793	      00 00 00 00 00 00	00+  15, 20, 32,  0,  0,  0,  0,  0,  0
   1794	      00 00 20 14 0F 0F	0F+
   1795	      0F 0F 0F 14 20 00	00+
   1796	      00 00 00 00
1  1797	36E7  00 00 00 00 00 00	00+  db	  0,  0,  0,  0,  0,  0,  0,  0,  0,  0,  0,  0,  0,  0,  0,  0, 32, 20, 15, 15, 15, 15, 15,+
   1798	      00 00 00 00 00 00	00+  20, 32,  0,  0,  0,  0,  0,  0,  0
   1799	      00 00 20 14 0F 0F	0F+
   1800	      0F 0F 14 20 00 00	00+
   1801	      00 00 00 00
1  1802	3707  00 00 00 00 00 00	00+  db	  0,  0,  0,  0,  0,  0,  0,  0,  0,  0,  0,  0,  0,  0,  0,  0, 32, 20, 15, 15, 15, 15, 20,+
   1803	      00 00 00 00 00 00	00+  32,  0,  0,  0,  0,  0,  0,  0,  0
   1804	      00 00 20 14 0F 0F	0F+
   1805	      0F 14 20 00 00 00	00+
   1806	      00 00 00 00
1  1807	3727  00 00 00 00 00 00	00+  db	  0,  0,  0,  0,  0,  0,  0,  0,  0,  0,  0,  0,  0,  0,  0,  0, 32, 20, 15, 15, 15, 20, 32,+
   1808	      00 00 00 00 00 00	00+  0,	 0,  0,	 0,  0,	 0,  0,	 0,  0
   1809	      00 00 20 14 0F 0F	0F+
   1810	      14 20 00 00 00 00	00+
   1811	      00 00 00 00
1  1812	3747  00 00 00 00 00 00	00+  db	  0,  0,  0,  0,  0,  0,  0,  0,  0,  0,  0,  0,  0,  0,  0,  0, 32, 20, 15, 15, 20, 32,  0,+
   1813	      00 00 00 00 00 00	00+  0,	 0,  0,	 0,  0,	 0,  0,	 0,  0
   1814	      00 00 20 14 0F 0F	14+
   1815	      20 00 00 00 00 00	00+
   1816	      00 00 00 00
1  1817	3767  00 00 00 00 00 00	00+  db	  0,  0,  0,  0,  0,  0,  0,  0,  0,  0,  0,  0,  0,  0,  0,  0, 32, 20, 15, 20, 32,  0,  0,+
   1818	      00 00 00 00 00 00	00+  0,	 0,  0,	 0,  0,	 0,  0,	 0,  0
   1819	      00 00 20 14 0F 14	20+
   1820	      00 00 00 00 00 00	00+
   1821	      00 00 00 00
1  1822	3787  00 00 00 00 00 00	00+  db	  0,  0,  0,  0,  0,  0,  0,  0,  0,  0,  0,  0,  0,  0,  0,  0, 32, 20, 20, 32,  0,  0,  0,+
   1823	      00 00 00 00 00 00	00+  0,	 0,  0,	 0,  0,	 0,  0,	 0,  0
   1824	      00 00 20 14 14 20	00+
Turbo Assembler	 Version 3.2	    03/09/00 02:20:48	    Page 33
my.asm



   1825	      00 00 00 00 00 00	00+
   1826	      00 00 00 00
1  1827	37A7  00 00 00 00 00 00	00+  db	  0,  0,  0,  0,  0,  0,  0,  0,  0,  0,  0,  0,  0,  0,  0,  0, 32, 20, 32,  0,  0,  0,  0,+
   1828	      00 00 00 00 00 00	00+  0,	 0,  0,	 0,  0,	 0,  0,	 0,  0
   1829	      00 00 20 14 20 00	00+
   1830	      00 00 00 00 00 00	00+
   1831	      00 00 00 00
1  1832	37C7  00 00 00 00 00 00	00+  db	  0,  0,  0,  0,  0,  0,  0,  0,  0,  0,  0,  0,  0,  0,  0,  0, 32, 32,  0,  0,  0,  0,  0,+
   1833	      00 00 00 00 00 00	00+  0,	 0,  0,	 0,  0,	 0,  0,	 0,  0
   1834	      00 00 20 20 00 00	00+
   1835	      00 00 00 00 00 00	00+
   1836	      00 00 00 00
1  1837	37E7  00 00 00 00 00 00	00+  db	  0,  0,  0,  0,  0,  0,  0,  0,  0,  0,  0,  0,  0,  0,  0,  0,  0,  0,  0,  0,  0,  0,  0,+
   1838	      00 00 00 00 00 00	00+  0,	 0,  0,	 0,  0,	 0,  0,	 0,  0
   1839	      00 00 00 00 00 00	00+
   1840	      00 00 00 00 00 00	00+
   1841	      00 00 00 00
1  1842
   1843						     include Arrowl.asm
1  1844	3807  00 00 00 10	     ArrowLeft	     db	     0,0,0,16
1  1845	380B  00 00 00 00 00 00	00+  db	  0,  0,  0,  0,  0,  0,  0,  0,  0,  0,  0,  0,  0,  0,  0, 32, 32,  0,  0,  0,  0,  0,  0,+
   1846	      00 00 00 00 00 00	00+  0,	 0,  0,	 0,  0,	 0,  0,	 0,  0
   1847	      00 20 20 00 00 00	00+
   1848	      00 00 00 00 00 00	00+
   1849	      00 00 00 00
1  1850	382B  00 00 00 00 00 00	00+  db	  0,  0,  0,  0,  0,  0,  0,  0,  0,  0,  0,  0,  0,  0, 32, 20, 32,  0,  0,  0,  0,  0,  0,+
   1851	      00 00 00 00 00 00	00+  0,	 0,  0,	 0,  0,	 0,  0,	 0,  0
   1852	      20 14 20 00 00 00	00+
   1853	      00 00 00 00 00 00	00+
   1854	      00 00 00 00
1  1855	384B  00 00 00 00 00 00	00+  db	  0,  0,  0,  0,  0,  0,  0,  0,  0,  0,  0,  0,  0, 32, 20, 20, 32,  0,  0,  0,  0,  0,  0,+
   1856	      00 00 00 00 00 00	20+  0,	 0,  0,	 0,  0,	 0,  0,	 0,  0
   1857	      14 14 20 00 00 00	00+
   1858	      00 00 00 00 00 00	00+
   1859	      00 00 00 00
1  1860	386B  00 00 00 00 00 00	00+  db	  0,  0,  0,  0,  0,  0,  0,  0,  0,  0,  0,  0, 32, 20, 15, 20, 32,  0,  0,  0,  0,  0,  0,+
   1861	      00 00 00 00 00 20	14+  0,	 0,  0,	 0,  0,	 0,  0,	 0,  0
   1862	      0F 14 20 00 00 00	00+
   1863	      00 00 00 00 00 00	00+
   1864	      00 00 00 00
1  1865	388B  00 00 00 00 00 00	00+  db	  0,  0,  0,  0,  0,  0,  0,  0,  0,  0,  0, 32, 20, 15, 15, 20, 32,  0,  0,  0,  0,  0,  0,+
   1866	      00 00 00 00 20 14	0F+  0,	 0,  0,	 0,  0,	 0,  0,	 0,  0
   1867	      0F 14 20 00 00 00	00+
   1868	      00 00 00 00 00 00	00+
   1869	      00 00 00 00
1  1870	38AB  00 00 00 00 00 00	00+  db	  0,  0,  0,  0,  0,  0,  0,  0,  0,  0, 32, 20, 15, 15, 15, 20, 32,  0,  0,  0,  0,  0,  0,+
   1871	      00 00 00 20 14 0F	0F+  0,	 0,  0,	 0,  0,	 0,  0,	 0,  0
   1872	      0F 14 20 00 00 00	00+
   1873	      00 00 00 00 00 00	00+
   1874	      00 00 00 00
1  1875	38CB  00 00 00 00 00 00	00+  db	  0,  0,  0,  0,  0,  0,  0,  0,  0, 32, 20, 15, 15, 15, 15, 20, 32,  0,  0,  0,  0,  0,  0,+
   1876	      00 00 20 14 0F 0F	0F+  0,	 0,  0,	 0,  0,	 0,  0,	 0,  0
   1877	      0F 14 20 00 00 00	00+
   1878	      00 00 00 00 00 00	00+
   1879	      00 00 00 00
1  1880	38EB  00 00 00 00 00 00	00+  db	  0,  0,  0,  0,  0,  0,  0,  0, 32, 20, 15, 15, 15, 15, 15, 20, 32,  0,  0,  0,  0,  0,  0,+
   1881	      00 20 14 0F 0F 0F	0F+  0,	 0,  0,	 0,  0,	 0,  0,	 0,  0
Turbo Assembler	 Version 3.2	    03/09/00 02:20:48	    Page 34
my.asm



   1882	      0F 14 20 00 00 00	00+
   1883	      00 00 00 00 00 00	00+
   1884	      00 00 00 00
1  1885	390B  00 00 00 00 00 00	00+  db	  0,  0,  0,  0,  0,  0,  0, 32, 20, 15, 15, 15, 15, 15, 15, 20, 32,  0,  0,  0,  0,  0,  0,+
   1886	      20 14 0F 0F 0F 0F	0F+  0,	 0,  0,	 0,  0,	 0,  0,	 0,  0
   1887	      0F 14 20 00 00 00	00+
   1888	      00 00 00 00 00 00	00+
   1889	      00 00 00 00
1  1890	392B  00 00 00 00 00 00	20+  db	  0,  0,  0,  0,  0,  0, 32, 20, 15, 15, 15, 15, 15, 15, 15, 20, 32, 32, 32, 32, 32, 32, 32,+
   1891	      14 0F 0F 0F 0F 0F	0F+  32, 32, 32, 32, 32, 32,  0,  0,  0
   1892	      0F 14 20 20 20 20	20+
   1893	      20 20 20 20 20 20	20+
   1894	      20 00 00 00
1  1895	394B  00 00 00 00 00 20	14+  db	  0,  0,  0,  0,  0, 32, 20, 15, 15, 15, 15, 15, 15, 15, 15, 20, 20, 20, 20, 20, 20, 20, 20,+
   1896	      0F 0F 0F 0F 0F 0F	0F+  20, 20, 20, 20, 20, 32,  0,  0,  0
   1897	      0F 14 14 14 14 14	14+
   1898	      14 14 14 14 14 14	14+
   1899	      20 00 00 00
1  1900	396B  00 00 00 00 20 14	0F+  db	  0,  0,  0,  0, 32, 20, 15, 15, 15, 15, 15, 15, 15, 15, 15, 15, 15, 15, 15, 15, 15, 15, 15,+
   1901	      0F 0F 0F 0F 0F 0F	0F+  15, 15, 15, 15, 20, 32,  0,  0,  0
   1902	      0F 0F 0F 0F 0F 0F	0F+
   1903	      0F 0F 0F 0F 0F 0F	14+
   1904	      20 00 00 00
1  1905	398B  00 00 00 20 14 0F	0F+  db	  0,  0,  0, 32, 20, 15, 15, 15, 15, 15, 15, 15, 15, 15, 15, 15, 15, 15, 15, 15, 15, 15, 15,+
   1906	      0F 0F 0F 0F 0F 0F	0F+  15, 15, 15, 15, 20, 32,  0,  0,  0
   1907	      0F 0F 0F 0F 0F 0F	0F+
   1908	      0F 0F 0F 0F 0F 0F	14+
   1909	      20 00 00 00
1  1910	39AB  00 00 20 14 0F 0F	0F+  db	  0,  0, 32, 20, 15, 15, 15, 15, 15, 15, 15, 15, 15, 15, 15, 15, 15, 15, 15, 15, 15, 15, 15,+
   1911	      0F 0F 0F 0F 0F 0F	0F+  15, 15, 15, 15, 20, 32,  0,  0,  0
   1912	      0F 0F 0F 0F 0F 0F	0F+
   1913	      0F 0F 0F 0F 0F 0F	14+
   1914	      20 00 00 00
1  1915	39CB  00 20 14 0F 0F 0F	0F+  db	  0, 32, 20, 15, 15, 15, 15, 15, 15, 15, 15, 15, 15, 15, 15, 15, 15, 15, 15, 15, 15, 15, 15,+
   1916	      0F 0F 0F 0F 0F 0F	0F+  15, 15, 15, 15, 20, 32,  0,  0,  0
   1917	      0F 0F 0F 0F 0F 0F	0F+
   1918	      0F 0F 0F 0F 0F 0F	14+
   1919	      20 00 00 00
1  1920	39EB  20 14 0F 0F 0F 0F	0F+  db	 32, 20, 15, 15, 15, 15, 15, 15, 15, 15, 15, 15, 15, 15, 15, 15, 15, 15, 15, 15, 15, 15, 15,+
   1921	      0F 0F 0F 0F 0F 0F	0F+  15, 15, 15, 15, 20, 32,  0,  0,  0
   1922	      0F 0F 0F 0F 0F 0F	0F+
   1923	      0F 0F 0F 0F 0F 0F	14+
   1924	      20 00 00 00
1  1925	3A0B  00 20 14 0F 0F 0F	0F+  db	  0, 32, 20, 15, 15, 15, 15, 15, 15, 15, 15, 15, 15, 15, 15, 15, 15, 15, 15, 15, 15, 15, 15,+
   1926	      0F 0F 0F 0F 0F 0F	0F+  15, 15, 15, 15, 20, 32,  0,  0,  0
   1927	      0F 0F 0F 0F 0F 0F	0F+
   1928	      0F 0F 0F 0F 0F 0F	14+
   1929	      20 00 00 00
1  1930	3A2B  00 00 20 14 0F 0F	0F+  db	  0,  0, 32, 20, 15, 15, 15, 15, 15, 15, 15, 15, 15, 15, 15, 15, 15, 15, 15, 15, 15, 15, 15,+
   1931	      0F 0F 0F 0F 0F 0F	0F+  15, 15, 15, 15, 20, 32,  0,  0,  0
   1932	      0F 0F 0F 0F 0F 0F	0F+
   1933	      0F 0F 0F 0F 0F 0F	14+
   1934	      20 00 00 00
1  1935	3A4B  00 00 00 20 14 0F	0F+  db	  0,  0,  0, 32, 20, 15, 15, 15, 15, 15, 15, 15, 15, 15, 15, 15, 15, 15, 15, 15, 15, 15, 15,+
   1936	      0F 0F 0F 0F 0F 0F	0F+  15, 15, 15, 15, 20, 32,  0,  0,  0
   1937	      0F 0F 0F 0F 0F 0F	0F+
   1938	      0F 0F 0F 0F 0F 0F	14+
Turbo Assembler	 Version 3.2	    03/09/00 02:20:48	    Page 35
my.asm



   1939	      20 00 00 00
1  1940	3A6B  00 00 00 00 20 14	0F+  db	  0,  0,  0,  0, 32, 20, 15, 15, 15, 15, 15, 15, 15, 15, 15, 15, 15, 15, 15, 15, 15, 15, 15,+
   1941	      0F 0F 0F 0F 0F 0F	0F+  15, 15, 15, 15, 20, 32,  0,  0,  0
   1942	      0F 0F 0F 0F 0F 0F	0F+
   1943	      0F 0F 0F 0F 0F 0F	14+
   1944	      20 00 00 00
1  1945	3A8B  00 00 00 00 00 20	14+  db	  0,  0,  0,  0,  0, 32, 20, 15, 15, 15, 15, 15, 15, 15, 15, 20, 20, 20, 20, 20, 20, 20, 20,+
   1946	      0F 0F 0F 0F 0F 0F	0F+  20, 20, 20, 20, 20, 32,  0,  0,  0
   1947	      0F 14 14 14 14 14	14+
   1948	      14 14 14 14 14 14	14+
   1949	      20 00 00 00
1  1950	3AAB  00 00 00 00 00 00	20+  db	  0,  0,  0,  0,  0,  0, 32, 20, 15, 15, 15, 15, 15, 15, 15, 20, 32, 32, 32, 32, 32, 32, 32,+
   1951	      14 0F 0F 0F 0F 0F	0F+  32, 32, 32, 32, 32, 32,  0,  0,  0
   1952	      0F 14 20 20 20 20	20+
   1953	      20 20 20 20 20 20	20+
   1954	      20 00 00 00
1  1955	3ACB  00 00 00 00 00 00	00+  db	  0,  0,  0,  0,  0,  0,  0, 32, 20, 15, 15, 15, 15, 15, 15, 20, 32,  0,  0,  0,  0,  0,  0,+
   1956	      20 14 0F 0F 0F 0F	0F+  0,	 0,  0,	 0,  0,	 0,  0,	 0,  0
   1957	      0F 14 20 00 00 00	00+
   1958	      00 00 00 00 00 00	00+
   1959	      00 00 00 00
1  1960	3AEB  00 00 00 00 00 00	00+  db	  0,  0,  0,  0,  0,  0,  0,  0, 32, 20, 15, 15, 15, 15, 15, 20, 32,  0,  0,  0,  0,  0,  0,+
   1961	      00 20 14 0F 0F 0F	0F+  0,	 0,  0,	 0,  0,	 0,  0,	 0,  0
   1962	      0F 14 20 00 00 00	00+
   1963	      00 00 00 00 00 00	00+
   1964	      00 00 00 00
1  1965	3B0B  00 00 00 00 00 00	00+  db	  0,  0,  0,  0,  0,  0,  0,  0,  0, 32, 20, 15, 15, 15, 15, 20, 32,  0,  0,  0,  0,  0,  0,+
   1966	      00 00 20 14 0F 0F	0F+  0,	 0,  0,	 0,  0,	 0,  0,	 0,  0
   1967	      0F 14 20 00 00 00	00+
   1968	      00 00 00 00 00 00	00+
   1969	      00 00 00 00
1  1970	3B2B  00 00 00 00 00 00	00+  db	  0,  0,  0,  0,  0,  0,  0,  0,  0,  0, 32, 20, 15, 15, 15, 20, 32,  0,  0,  0,  0,  0,  0,+
   1971	      00 00 00 20 14 0F	0F+  0,	 0,  0,	 0,  0,	 0,  0,	 0,  0
   1972	      0F 14 20 00 00 00	00+
   1973	      00 00 00 00 00 00	00+
   1974	      00 00 00 00
1  1975	3B4B  00 00 00 00 00 00	00+  db	  0,  0,  0,  0,  0,  0,  0,  0,  0,  0,  0, 32, 20, 15, 15, 20, 32,  0,  0,  0,  0,  0,  0,+
   1976	      00 00 00 00 20 14	0F+  0,	 0,  0,	 0,  0,	 0,  0,	 0,  0
   1977	      0F 14 20 00 00 00	00+
   1978	      00 00 00 00 00 00	00+
   1979	      00 00 00 00
1  1980	3B6B  00 00 00 00 00 00	00+  db	  0,  0,  0,  0,  0,  0,  0,  0,  0,  0,  0,  0, 32, 20, 15, 20, 32,  0,  0,  0,  0,  0,  0,+
   1981	      00 00 00 00 00 20	14+  0,	 0,  0,	 0,  0,	 0,  0,	 0,  0
   1982	      0F 14 20 00 00 00	00+
   1983	      00 00 00 00 00 00	00+
   1984	      00 00 00 00
1  1985	3B8B  00 00 00 00 00 00	00+  db	  0,  0,  0,  0,  0,  0,  0,  0,  0,  0,  0,  0,  0, 32, 20, 20, 32,  0,  0,  0,  0,  0,  0,+
   1986	      00 00 00 00 00 00	20+  0,	 0,  0,	 0,  0,	 0,  0,	 0,  0
   1987	      14 14 20 00 00 00	00+
   1988	      00 00 00 00 00 00	00+
   1989	      00 00 00 00
1  1990	3BAB  00 00 00 00 00 00	00+  db	  0,  0,  0,  0,  0,  0,  0,  0,  0,  0,  0,  0,  0,  0, 32, 20, 32,  0,  0,  0,  0,  0,  0,+
   1991	      00 00 00 00 00 00	00+  0,	 0,  0,	 0,  0,	 0,  0,	 0,  0
   1992	      20 14 20 00 00 00	00+
   1993	      00 00 00 00 00 00	00+
   1994	      00 00 00 00
1  1995	3BCB  00 00 00 00 00 00	00+  db	  0,  0,  0,  0,  0,  0,  0,  0,  0,  0,  0,  0,  0,  0,  0, 32, 32,  0,  0,  0,  0,  0,  0,+
Turbo Assembler	 Version 3.2	    03/09/00 02:20:48	    Page 36
my.asm



   1996	      00 00 00 00 00 00	00+  0,	 0,  0,	 0,  0,	 0,  0,	 0,  0
   1997	      00 20 20 00 00 00	00+
   1998	      00 00 00 00 00 00	00+
   1999	      00 00 00 00
1  2000	3BEB  00 00 00 00 00 00	00+  db	  0,  0,  0,  0,  0,  0,  0,  0,  0,  0,  0,  0,  0,  0,  0,  0,  0,  0,  0,  0,  0,  0,  0,+
   2001	      00 00 00 00 00 00	00+  0,	 0,  0,	 0,  0,	 0,  0,	 0,  0
   2002	      00 00 00 00 00 00	00+
   2003	      00 00 00 00 00 00	00+
   2004	      00 00 00 00
1  2005
   2006						     include NoScroll.asm
1  2007	3C0B  00 00 10 10	     NoScroll	     db	     0,0,16,16
1  2008	3C0F  00 00 00 00 00 00	00+  db	  0,  0,  0,  0,  0,  0,  0,  0,  0, 42, 42, 42,  4,  4,  4,  4,  4,  4,  4,  4, 42, 42, 42,+
   2009	      00 00 2A 2A 2A 04	04+  0,	 0,  0,	 0,  0,	 0,  0,	 0,  0
   2010	      04 04 04 04 04 04	2A+
   2011	      2A 2A 00 00 00 00	00+
   2012	      00 00 00 00
1  2013	3C2F  00 00 00 00 00 00	00+  db	  0,  0,  0,  0,  0,  0,  0, 42, 42,  4,  4,  4,  4,  4,  4,  4,  4,  4,  4,  4,  4,  4,  4,+
   2014	      2A 2A 04 04 04 04	04+  42, 42,  0,  0,  0,  0,  0,  0,  0
   2015	      04 04 04 04 04 04	04+
   2016	      04 04 2A 2A 00 00	00+
   2017	      00 00 00 00
1  2018	3C4F  00 00 00 00 00 00	2A+  db	  0,  0,  0,  0,  0,  0, 42,  4,  4,  4,  4,  4,  4,  4,  4,  4,  4,  4,  4,  4,  4,  4,  4,+
   2019	      04 04 04 04 04 04	04+  4,	 4, 42,	 0,  0,	 0,  0,	 0,  0
   2020	      04 04 04 04 04 04	04+
   2021	      04 04 04 04 2A 00	00+
   2022	      00 00 00 00
1  2023	3C6F  00 00 00 00 2A 2A	04+  db	  0,  0,  0,  0, 42, 42,  4,  4,  4,  4,  4,  4, 42, 42, 42, 42, 42, 42, 42, 42,  4,  4,  4,+
   2024	      04 04 04 04 04 2A	2A+  4,	 4,  4,	42, 42,	 0,  0,	 0,  0
   2025	      2A 2A 2A 2A 2A 2A	04+
   2026	      04 04 04 04 04 2A	2A+
   2027	      00 00 00 00
1  2028	3C8F  00 00 00 2A 04 04	04+  db	  0,  0,  0, 42,  4,  4,  4,  4,  4,  4, 42, 42,  0,  0,  0,  0,  0,  0,  0,  0, 42, 42,  4,+
   2029	      04 04 04 2A 2A 00	00+  4,	 4,  4,	 4,  4,	42,  0,	 0,  0
   2030	      00 00 00 00 00 00	2A+
   2031	      2A 04 04 04 04 04	04+
   2032	      2A 00 00 00
1  2033	3CAF  00 00 00 2A 04 04	04+  db	  0,  0,  0, 42,  4,  4,  4,  4, 42, 42,  0,  0,  0,  0,  0,  0, 28,  0,  0,  0,  0,  0, 42,+
   2034	      04 2A 2A 00 00 00	00+  4,	 4,  4,	 4,  4,	42,  0,	 0,  0
   2035	      00 00 1C 00 00 00	00+
   2036	      00 2A 04 04 04 04	04+
   2037	      2A 00 00 00
1  2038	3CCF  00 00 2A 04 04 04	04+  db	  0,  0, 42,  4,  4,  4,  4, 42,  0,  0,  0,  0,  0,  0,  0, 28, 18, 28,  0,  0,  0,  0, 42,+
   2039	      2A 00 00 00 00 00	00+  4,	 4,  4,	 4,  4,	 4, 42,	 0,  0
   2040	      00 1C 12 1C 00 00	00+
   2041	      00 2A 04 04 04 04	04+
   2042	      04 2A 00 00
1  2043	3CEF  00 2A 04 04 04 04	2A+  db	  0, 42,  4,  4,  4,  4, 42,  0,  0,  0,  0,  0,  0,  0, 28, 18, 15, 18, 28,  0,  0, 42,  4,+
   2044	      00 00 00 00 00 00	00+  4,	 4,  4,	 4,  4,	 4,  4,	42,  0
   2045	      1C 12 0F 12 1C 00	00+
   2046	      2A 04 04 04 04 04	04+
   2047	      04 04 2A 00
1  2048	3D0F  00 2A 04 04 04 2A	00+  db	  0, 42,  4,  4,  4, 42,  0,  0,  0,  0,  0,  0,  0, 28, 18, 15, 15, 15, 18, 28, 42,  4,  4,+
   2049	      00 00 00 00 00 00	1C+  4,	 4,  4,	 4,  4,	 4,  4,	42,  0
   2050	      12 0F 0F 0F 12 1C	2A+
   2051	      04 04 04 04 04 04	04+
   2052	      04 04 2A 00
Turbo Assembler	 Version 3.2	    03/09/00 02:20:48	    Page 37
my.asm



1  2053	3D2F  2A 04 04 04 04 2A	00+  db	 42,  4,  4,  4,  4, 42,  0,  0,  0,  0,  0,  0, 28, 18, 18, 18, 15, 18, 18, 18,  4,  4,  4,+
   2054	      00 00 00 00 00 1C	12+  4,	 4, 42,	42,  4,	 4,  4,	 4, 42
   2055	      12 12 0F 12 12 12	04+
   2056	      04 04 04 04 2A 2A	04+
   2057	      04 04 04 2A
1  2058	3D4F  2A 04 04 04 2A 00	00+  db	 42,  4,  4,  4, 42,  0,  0,  0,  0,  0,  0,  0, 28, 28, 28, 18, 15, 18, 28,  4,  4,  4,  4,+
   2059	      00 00 00 00 00 1C	1C+  4,	42,  0,	 0, 42,	 4,  4,	 4, 42
   2060	      1C 12 0F 12 1C 04	04+
   2061	      04 04 04 2A 00 00	2A+
   2062	      04 04 04 2A
1  2063	3D6F  2A 04 04 04 2A 00	00+  db	 42,  4,  4,  4, 42,  0,  0,  0,  0,  0, 28, 28,  0,  0, 28, 18, 15, 18,  4,  4,  4,  4,  4,+
   2064	      00 00 00 1C 1C 00	00+  42,  0,  0,  0, 42,  4,  4,  4, 42
   2065	      1C 12 0F 12 04 04	04+
   2066	      04 04 2A 00 00 00	2A+
   2067	      04 04 04 2A
1  2068	3D8F  04 04 04 2A 00 00	00+  db	  4,  4,  4, 42,  0,  0,  0,  0,  0, 28, 18, 28,  0,  0, 28, 18, 15,  4,  4,  4,  4,  4, 18,+
   2069	      00 00 1C 12 1C 00	00+  28,  0,  0,  0,  0, 42,  4,  4,  4
   2070	      1C 12 0F 04 04 04	04+
   2071	      04 12 1C 00 00 00	00+
   2072	      2A 04 04 04
1  2073	3DAF  04 04 04 2A 00 00	00+  db	  4,  4,  4, 42,  0,  0,  0,  0, 28, 18, 18, 28, 28, 28, 28, 18,  4,  4,  4,  4,  4, 28, 18,+
   2074	      00 1C 12 12 1C 1C	1C+  18, 28,  0,  0,  0, 42,  4,  4,  4
   2075	      1C 12 04 04 04 04	04+
   2076	      1C 12 12 1C 00 00	00+
   2077	      2A 04 04 04
1  2078	3DCF  04 04 04 2A 00 00	00+  db	  4,  4,  4, 42,  0,  0,  0, 28, 18, 15, 18, 18, 18, 18, 18,  4,  4,  4,  4,  4, 18, 18, 18,+
   2079	      1C 12 0F 12 12 12	12+  15, 18, 28,  0,  0, 42,  4,  4,  4
   2080	      12 04 04 04 04 04	12+
   2081	      12 12 0F 12 1C 00	00+
   2082	      2A 04 04 04
1  2083	3DEF  04 04 04 2A 00 00	1C+  db	  4,  4,  4, 42,  0,  0, 28, 18, 15, 15, 15, 15, 15, 15,  4,  4,  4,  4,  4, 15, 15, 15, 15,+
   2084	      12 0F 0F 0F 0F 0F	0F+  15, 15, 18, 28,  0, 42,  4,  4,  4
   2085	      04 04 04 04 04 0F	0F+
   2086	      0F 0F 0F 0F 12 1C	00+
   2087	      2A 04 04 04
1  2088	3E0F  04 04 04 2A 00 00	00+  db	  4,  4,  4, 42,  0,  0,  0, 26, 18, 15, 18, 18, 18,  4,  4,  4,  4,  4, 18, 18, 18, 18, 18,+
   2089	      1A 12 0F 12 12 12	04+  15, 18, 28,  0,  0, 42,  4,  4,  4
   2090	      04 04 04 04 12 12	12+
   2091	      12 12 0F 12 1C 00	00+
   2092	      2A 04 04 04
1  2093	3E2F  04 04 04 2A 00 00	00+  db	  4,  4,  4, 42,  0,  0,  0,  0, 28, 18, 18, 28,  4,  4,  4,  4,  4, 18, 28, 28, 28, 28, 18,+
   2094	      00 1C 12 12 1C 04	04+  18, 28,  0,  0,  0, 42,  4,  4,  4
   2095	      04 04 04 12 1C 1C	1C+
   2096	      1C 12 12 1C 00 00	00+
   2097	      2A 04 04 04
1  2098	3E4F  04 04 04 2A 00 00	00+  db	  4,  4,  4, 42,  0,  0,  0,  0,  0, 28, 18,  4,  4,  4,  4,  4, 15, 18, 28,  0,  0, 28, 18,+
   2099	      00 00 1C 12 04 04	04+  28,  0,  0,  0,  0, 42,  4,  4,  4
   2100	      04 04 0F 12 1C 00	00+
   2101	      1C 12 1C 00 00 00	00+
   2102	      2A 04 04 04
1  2103	3E6F  04 04 04 2A 00 00	00+  db	  4,  4,  4, 42,  0,  0,  0,  0,  0, 42,  4,  4,  4,  4,  4, 18, 15, 18, 28,  0,  0, 28, 28,+
   2104	      00 00 2A 04 04 04	04+  0,	 0,  0,	 0,  0,	42,  4,	 4,  4
   2105	      04 12 0F 12 1C 00	00+
   2106	      1C 1C 00 00 00 00	00+
   2107	      2A 04 04 04
1  2108	3E8F  2A 04 04 04 2A 00	00+  db	 42,  4,  4,  4, 42,  0,  0,  0, 42,  4,  4,  4,  4,  4, 28, 18, 15, 18, 28, 28, 28,  0,  0,+
   2109	      00 2A 04 04 04 04	04+  0,	 0,  0,	 0, 42,	 4,  4,	 4, 42
Turbo Assembler	 Version 3.2	    03/09/00 02:20:48	    Page 38
my.asm



   2110	      1C 12 0F 12 1C 1C	1C+
   2111	      00 00 00 00 00 00	2A+
   2112	      04 04 04 2A
1  2113	3EAF  2A 04 04 04 2A 00	00+  db	 42,  4,  4,  4, 42,  0,  0, 42,  4,  4,  4,  4,  4, 18, 18, 18, 15, 18, 18, 18, 28,  0,  0,+
   2114	      2A 04 04 04 04 04	12+  0,	 0,  0,	 0, 42,	 4,  4,	 4, 42
   2115	      12 12 0F 12 12 12	1C+
   2116	      00 00 00 00 00 00	2A+
   2117	      04 04 04 2A
1  2118	3ECF  2A 04 04 04 04 2A	2A+  db	 42,  4,  4,  4,  4, 42, 42,  4,  4,  4,  4,  4, 42, 28, 18, 15, 15, 15, 18, 28,  0,  0,  0,+
   2119	      04 04 04 04 04 2A	1C+  0,	 0,  0,	42,  4,	 4,  4,	 4, 42
   2120	      12 0F 0F 0F 12 1C	00+
   2121	      00 00 00 00 00 2A	04+
   2122	      04 04 04 2A
1  2123	3EEF  00 2A 04 04 04 04	04+  db	  0, 42,  4,  4,  4,  4,  4,  4,  4,  4,  4, 42,  0,  0, 28, 18, 15, 18, 28,  0,  0,  0,  0,+
   2124	      04 04 04 04 2A 00	00+  0,	 0,  0,	42,  4,	 4,  4,	42,  0
   2125	      1C 12 0F 12 1C 00	00+
   2126	      00 00 00 00 00 2A	04+
   2127	      04 04 2A 00
1  2128	3F0F  00 2A 04 04 04 04	04+  db	  0, 42,  4,  4,  4,  4,  4,  4,  4,  4, 42,  0,  0,  0,  0, 28, 18, 28,  0,  0,  0,  0,  0,+
   2129	      04 04 04 2A 00 00	00+  0,	 0, 42,	 4,  4,	 4,  4,	42,  0
   2130	      00 1C 12 1C 00 00	00+
   2131	      00 00 00 00 2A 04	04+
   2132	      04 04 2A 00
1  2133	3F2F  00 00 2A 04 04 04	04+  db	  0,  0, 42,  4,  4,  4,  4,  4,  4, 42,  0,  0,  0,  0,  0,  0, 28,  0,  0,  0,  0,  0,  0,+
   2134	      04 04 2A 00 00 00	00+  0,	42,  4,	 4,  4,	 4, 42,	 0,  0
   2135	      00 00 1C 00 00 00	00+
   2136	      00 00 00 2A 04 04	04+
   2137	      04 2A 00 00
1  2138	3F4F  00 00 00 2A 04 04	04+  db	  0,  0,  0, 42,  4,  4,  4,  4,  4, 42,  0,  0,  0,  0,  0,  0,  0,  0,  0,  0,  0,  0, 42,+
   2139	      04 04 2A 00 00 00	00+  42,  4,  4,  4,  4, 42,  0,  0,  0
   2140	      00 00 00 00 00 00	00+
   2141	      00 2A 2A 04 04 04	04+
   2142	      2A 00 00 00
1  2143	3F6F  00 00 00 2A 04 04	04+  db	  0,  0,  0, 42,  4,  4,  4,  4,  4,  4, 42, 42,  0,  0,  0,  0,  0,  0,  0,  0, 42, 42,  4,+
   2144	      04 04 04 2A 2A 00	00+  4,	 4,  4,	 4,  4,	42,  0,	 0,  0
   2145	      00 00 00 00 00 00	2A+
   2146	      2A 04 04 04 04 04	04+
   2147	      2A 00 00 00
1  2148	3F8F  00 00 00 00 2A 2A	04+  db	  0,  0,  0,  0, 42, 42,  4,  4,  4,  4,  4,  4, 42, 42, 42, 42, 42, 42, 42, 42,  4,  4,  4,+
   2149	      04 04 04 04 04 2A	2A+  4,	 4,  4,	42, 42,	 0,  0,	 0,  0
   2150	      2A 2A 2A 2A 2A 2A	04+
   2151	      04 04 04 04 04 2A	2A+
   2152	      00 00 00 00
1  2153	3FAF  00 00 00 00 00 00	2A+  db	  0,  0,  0,  0,  0,  0, 42,  4,  4,  4,  4,  4,  4,  4,  4,  4,  4,  4,  4,  4,  4,  4,  4,+
   2154	      04 04 04 04 04 04	04+  4,	 4, 42,	 0,  0,	 0,  0,	 0,  0
   2155	      04 04 04 04 04 04	04+
   2156	      04 04 04 04 2A 00	00+
   2157	      00 00 00 00
1  2158	3FCF  00 00 00 00 00 00	00+  db	  0,  0,  0,  0,  0,  0,  0, 42, 42,  4,  4,  4,  4,  4,  4,  4,  4,  4,  4,  4,  4,  4,  4,+
   2159	      2A 2A 04 04 04 04	04+  42, 42,  0,  0,  0,  0,  0,  0,  0
   2160	      04 04 04 04 04 04	04+
   2161	      04 04 2A 2A 00 00	00+
   2162	      00 00 00 00
1  2163	3FEF  00 00 00 00 00 00	00+  db	  0,  0,  0,  0,  0,  0,  0,  0,  0, 42, 42, 42,  4,  4,  4,  4,  4,  4,  4,  4, 42, 42, 42,+
   2164	      00 00 2A 2A 2A 04	04+  0,	 0,  0,	 0,  0,	 0,  0,	 0,  0
   2165	      04 04 04 04 04 04	2A+
   2166	      2A 2A 00 00 00 00	00+
Turbo Assembler	 Version 3.2	    03/09/00 02:20:48	    Page 39
my.asm



   2167	      00 00 00 00
1  2168
   2169						     include font.asm
1  2170	400F  00 00 00 00 00 00	00+  StandardFont    db	000,000,000,000,000,000,000,000,000,000,000,000,000,000,000,000
   2171	      00 00 00 00 00 00	00+
   2172	      00 00
1  2173	401F  00 3C 42 81 81 A5	A5+		     db	000,060,066,129,129,165,165,129,129,165,153,129,066,060,000,000
   2174	      81 81 A5 99 81 42	3C+
   2175	      00 00
1  2176	402F  00 3C 7E FF FF DB	DB+		     db	000,060,126,255,255,219,219,255,255,219,231,255,126,060,000,000
   2177	      FF FF DB E7 FF 7E	3C+
   2178	      00 00
1  2179	403F  00 00 6C EE FE FE	FE+		     db	000,000,108,238,254,254,254,124,124,056,056,016,016,000,000,000
   2180	      7C 7C 38 38 10 10	00+
   2181	      00 00
1  2182	404F  00 00 10 38 38 7C	7C+		     db	000,000,016,056,056,124,124,254,124,124,056,056,016,000,000,000
   2183	      FE 7C 7C 38 38 10	00+
   2184	      00 00
1  2185	405F  00 00 38 38 38 10	D6+		     db	000,000,056,056,056,016,214,254,254,214,016,016,056,000,000,000
   2186	      FE FE D6 10 10 38	00+
   2187	      00 00
1  2188	406F  00 00 10 38 38 7C	7C+		     db	000,000,016,056,056,124,124,254,254,214,016,016,056,000,000,000
   2189	      FE FE D6 10 10 38	00+
   2190	      00 00
1  2191	407F  00 00 00 00 18 3C	3C+		     db	000,000,000,000,024,060,060,060,060,024,000,000,000,000,000,000
   2192	      3C 3C 18 00 00 00	00+
   2193	      00 00
1  2194	408F  FF FF FF FF E7 C3	C3+		     db	255,255,255,255,231,195,195,195,195,231,255,255,255,255,255,255
   2195	      C3 C3 E7 FF FF FF	FF+
   2196	      FF FF
1  2197	409F  00 00 00 3C 24 66	42+		     db	000,000,000,060,036,102,066,066,066,102,036,060,000,000,000,000
   2198	      42 42 66 24 3C 00	00+
   2199	      00 00
1  2200	40AF  FF FF FF C3 DB 99	BD+		     db	255,255,255,195,219,153,189,189,189,153,219,195,255,255,255,255
   2201	      BD BD 99 DB C3 FF	FF+
   2202	      FF FF
1  2203	40BF  00 00 1E 06 0A 0A	10+		     db	000,000,030,006,010,010,016,112,136,136,136,136,112,000,000,000
   2204	      70 88 88 88 88 70	00+
   2205	      00 00
1  2206	40CF  00 00 38 44 44 44	44+		     db	000,000,056,068,068,068,068,056,016,016,124,016,016,000,000,000
   2207	      38 10 10 7C 10 10	00+
   2208	      00 00
1  2209	40DF  00 00 10 18 14 14	12+		     db	000,000,016,024,020,020,018,018,016,016,112,240,224,000,000,000
   2210	      12 10 10 70 F0 E0	00+
   2211	      00 00
1  2212	40EF  00 20 30 28 24 32	2A+		     db	000,032,048,040,036,050,042,038,034,226,194,002,014,012,000,000
   2213	      26 22 E2 C2 02 0E	0C+
   2214	      00 00
1  2215	40FF  00 10 92 BA 44 44	44+		     db	000,016,146,186,068,068,068,198,068,068,068,186,146,016,000,000
   2216	      C6 44 44 44 BA 92	10+
   2217	      00 00
1  2218	410F  00 00 00 00 80 E0	F8+		     db	000,000,000,000,128,224,248,254,248,224,128,000,000,000,000,000
   2219	      FE F8 E0 80 00 00	00+
   2220	      00 00
1  2221	411F  00 00 00 00 02 0E	3E+		     db	000,000,000,000,002,014,062,254,062,014,002,000,000,000,000,000
   2222	      FE 3E 0E 02 00 00	00+
   2223	      00 00
Turbo Assembler	 Version 3.2	    03/09/00 02:20:48	    Page 40
my.asm



1  2224	412F  00 10 38 7C 54 10	10+		     db	000,016,056,124,084,016,016,016,016,016,084,124,056,016,000,000
   2225	      10 10 10 54 7C 38	10+
   2226	      00 00
1  2227	413F  00 00 24 24 24 24	24+		     db	000,000,036,036,036,036,036,036,036,000,000,036,036,000,000,000
   2228	      24 24 00 00 24 24	00+
   2229	      00 00
1  2230	414F  00 00 7F 92 92 92	92+		     db	000,000,127,146,146,146,146,114,018,018,018,018,018,000,000,000
   2231	      72 12 12 12 12 12	00+
   2232	      00 00
1  2233	415F  00 38 44 40 20 58	84+		     db	000,056,068,064,032,088,132,130,066,052,008,004,068,056,000,000
   2234	      82 42 34 08 04 44	38+
   2235	      00 00
1  2236	416F  00 00 00 00 00 00	00+		     db	000,000,000,000,000,000,000,000,126,126,126,126,126,000,000,000
   2237	      00 7E 7E 7E 7E 7E	00+
   2238	      00 00
1  2239	417F  00 10 38 7C 54 10	10+		     db	000,016,056,124,084,016,016,016,016,084,124,056,016,000,255,000
   2240	      10 10 54 7C 38 10	00+
   2241	      FF 00
1  2242	418F  00 00 10 38 7C 54	10+		     db	000,000,016,056,124,084,016,016,016,016,016,016,016,000,000,000
   2243	      10 10 10 10 10 10	00+
   2244	      00 00
1  2245	419F  00 00 10 10 10 10	10+		     db	000,000,016,016,016,016,016,016,016,084,124,056,016,000,000,000
   2246	      10 10 54 7C 38 10	00+
   2247	      00 00
1  2248	41AF  00 00 00 00 00 18	0C+		     db	000,000,000,000,000,024,012,254,012,024,000,000,000,000,000,000
   2249	      FE 0C 18 00 00 00	00+
   2250	      00 00
1  2251	41BF  00 00 00 00 00 30	60+		     db	000,000,000,000,000,048,096,254,096,048,000,000,000,000,000,000
   2252	      FE 60 30 00 00 00	00+
   2253	      00 00
1  2254	41CF  00 00 00 00 00 40	40+		     db	000,000,000,000,000,064,064,064,064,064,126,000,000,000,000,000
   2255	      40 40 40 7E 00 00	00+
   2256	      00 00
1  2257	41DF  00 00 00 00 00 24	66+		     db	000,000,000,000,000,036,102,255,102,036,000,000,000,000,000,000
   2258	      FF 66 24 00 00 00	00+
   2259	      00 00
1  2260	41EF  00 00 00 00 10 10	38+		     db	000,000,000,000,016,016,056,056,124,124,254,000,000,000,000,000
   2261	      38 7C 7C FE 00 00	00+
   2262	      00 00
1  2263	41FF  00 00 00 00 FE 7C	7C+		     db	000,000,000,000,254,124,124,056,056,016,016,000,000,000,000,000
   2264	      38 38 10 10 00 00	00+
   2265	      00 00
1  2266	420F  00 00 00 00 00 00	00+		     db	000,000,000,000,000,000,000,000,000,000,000,000,000,000,000,000
   2267	      00 00 00 00 00 00	00+
   2268	      00 00
1  2269	421F  00 00 10 10 10 10	10+		     db	000,000,016,016,016,016,016,016,016,000,000,016,016,000,000,000
   2270	      10 10 00 00 10 10	00+
   2271	      00 00
1  2272	422F  00 00 24 24 24 24	00+		     db	000,000,036,036,036,036,000,000,000,000,000,000,000,000,000,000
   2273	      00 00 00 00 00 00	00+
   2274	      00 00
1  2275	423F  00 00 44 44 44 FE	44+		     db	000,000,068,068,068,254,068,068,068,254,068,068,068,000,000,000
   2276	      44 44 FE 44 44 44	00+
   2277	      00 00
1  2278	424F  00 10 7C 92 90 90	90+		     db	000,016,124,146,144,144,144,124,018,018,018,146,124,016,000,000
   2279	      7C 12 12 12 92 7C	10+
   2280	      00 00
Turbo Assembler	 Version 3.2	    03/09/00 02:20:48	    Page 41
my.asm



1  2281	425F  00 60 90 90 92 64	08+		     db	000,096,144,144,146,100,008,016,032,076,146,018,018,012,000,000
   2282	      10 20 4C 92 12 12	0C+
   2283	      00 00
1  2284	426F  00 00 60 90 90 90	50+		     db	000,000,096,144,144,144,080,032,080,138,132,138,112,000,000,000
   2285	      20 50 8A 84 8A 70	00+
   2286	      00 00
1  2287	427F  00 00 18 18 08 08	00+		     db	000,000,024,024,008,008,000,000,000,000,000,000,000,000,000,000
   2288	      00 00 00 00 00 00	00+
   2289	      00 00
1  2290	428F  00 04 08 10 10 20	20+		     db	000,004,008,016,016,032,032,032,032,032,016,016,008,004,000,000
   2291	      20 20 20 10 10 08	04+
   2292	      00 00
1  2293	429F  00 40 20 10 10 08	08+		     db	000,064,032,016,016,008,008,008,008,008,016,016,032,064,000,000
   2294	      08 08 08 10 10 20	40+
   2295	      00 00
1  2296	42AF  00 00 00 00 10 92	54+		     db	000,000,000,000,016,146,084,056,084,146,016,000,000,000,000,000
   2297	      38 54 92 10 00 00	00+
   2298	      00 00
1  2299	42BF  00 00 00 00 10 10	10+		     db	000,000,000,000,016,016,016,254,016,016,016,000,000,000,000,000
   2300	      FE 10 10 10 00 00	00+
   2301	      00 00
1  2302	42CF  00 00 00 00 00 00	00+		     db	000,000,000,000,000,000,000,000,000,000,000,048,048,016,016,000
   2303	      00 00 00 00 30 30	10+
   2304	      10 00
1  2305	42DF  00 00 00 00 00 00	00+		     db	000,000,000,000,000,000,000,126,000,000,000,000,000,000,000,000
   2306	      7E 00 00 00 00 00	00+
   2307	      00 00
1  2308	42EF  00 00 00 00 00 00	00+		     db	000,000,000,000,000,000,000,000,000,000,000,048,048,000,000,000
   2309	      00 00 00 00 30 30	00+
   2310	      00 00
1  2311	42FF  00 02 02 04 04 08	08+		     db	000,002,002,004,004,008,008,016,016,016,032,032,064,064,000,000
   2312	      10 10 10 20 20 40	40+
   2313	      00 00
1  2314	430F  00 00 3C 42 46 46	4A+		     db	000,000,060,066,070,070,074,074,082,082,098,098,060,000,000,000
   2315	      4A 52 52 62 62 3C	00+
   2316	      00 00
1  2317	431F  00 00 08 18 28 08	08+		     db	000,000,008,024,040,008,008,008,008,008,008,008,062,000,000,000
   2318	      08 08 08 08 08 3E	00+
   2319	      00 00
1  2320	432F  00 00 3C 42 42 42	02+		     db	000,000,060,066,066,066,002,004,008,016,032,066,126,000,000,000
   2321	      04 08 10 20 42 7E	00+
   2322	      00 00
1  2323	433F  00 00 3C 42 42 02	04+		     db	000,000,060,066,066,002,004,024,004,002,066,066,060,000,000,000
   2324	      18 04 02 42 42 3C	00+
   2325	      00 00
1  2326	434F  00 00 0C 14 14 24	24+		     db	000,000,012,020,020,036,036,068,068,254,004,004,014,000,000,000
   2327	      44 44 FE 04 04 0E	00+
   2328	      00 00
1  2329	435F  00 00 7E 40 40 40	7C+		     db	000,000,126,064,064,064,124,066,002,002,002,066,060,000,000,000
   2330	      42 02 02 02 42 3C	00+
   2331	      00 00
1  2332	436F  00 00 3C 42 40 40	7C+		     db	000,000,060,066,064,064,124,066,066,066,066,066,060,000,000,000
   2333	      42 42 42 42 42 3C	00+
   2334	      00 00
1  2335	437F  00 00 FE 82 84 04	08+		     db	000,000,254,130,132,004,008,008,016,016,016,016,016,000,000,000
   2336	      08 10 10 10 10 10	00+
   2337	      00 00
Turbo Assembler	 Version 3.2	    03/09/00 02:20:48	    Page 42
my.asm



1  2338	438F  00 00 3C 42 42 42	24+		     db	000,000,060,066,066,066,036,024,036,066,066,066,060,000,000,000
   2339	      18 24 42 42 42 3C	00+
   2340	      00 00
1  2341	439F  00 00 3C 42 42 42	42+		     db	000,000,060,066,066,066,066,062,002,002,002,066,060,000,000,000
   2342	      3E 02 02 02 42 3C	00+
   2343	      00 00
1  2344	43AF  00 00 00 00 00 30	30+		     db	000,000,000,000,000,048,048,000,000,000,000,048,048,000,000,000
   2345	      00 00 00 00 30 30	00+
   2346	      00 00
1  2347	43BF  00 00 00 00 00 30	30+		     db	000,000,000,000,000,048,048,000,000,000,000,048,048,016,016,000
   2348	      00 00 00 00 30 30	10+
   2349	      10 00
1  2350	43CF  00 00 02 04 08 10	20+		     db	000,000,002,004,008,016,032,064,032,016,008,004,002,000,000,000
   2351	      40 20 10 08 04 02	00+
   2352	      00 00
1  2353	43DF  00 00 00 00 00 7E	00+		     db	000,000,000,000,000,126,000,000,000,126,000,000,000,000,000,000
   2354	      00 00 7E 00 00 00	00+
   2355	      00 00
1  2356	43EF  00 00 40 20 10 08	04+		     db	000,000,064,032,016,008,004,002,004,008,016,032,064,000,000,000
   2357	      02 04 08 10 20 40	00+
   2358	      00 00
1  2359	43FF  00 00 3C 42 42 02	04+		     db	000,000,060,066,066,002,004,008,008,000,000,008,008,000,000,000
   2360	      08 08 00 00 08 08	00+
   2361	      00 00
1  2362	440F  00 38 44 82 9A AA	AA+		     db	000,056,068,130,154,170,170,170,170,162,158,128,066,060,000,000
   2363	      AA AA A2 9E 80 42	3C+
   2364	      00 00
1  2365	441F  00 00 30 10 28 28	28+		     db	000,000,048,016,040,040,040,068,068,124,130,130,198,000,000,000
   2366	      44 44 7C 82 82 C6	00+
   2367	      00 00
1  2368	442F  00 00 FC 42 42 42	44+		     db	000,000,252,066,066,066,068,120,068,066,066,066,252,000,000,000
   2369	      78 44 42 42 42 FC	00+
   2370	      00 00
1  2371	443F  00 00 3E 42 82 80	80+		     db	000,000,062,066,130,128,128,128,128,130,130,068,056,000,000,000
   2372	      80 80 82 82 44 38	00+
   2373	      00 00
1  2374	444F  00 00 F8 44 42 42	42+		     db	000,000,248,068,066,066,066,066,066,066,066,068,248,000,000,000
   2375	      42 42 42 42 44 F8	00+
   2376	      00 00
1  2377	445F  00 00 FE 42 40 40	44+		     db	000,000,254,066,064,064,068,124,068,064,064,066,254,000,000,000
   2378	      7C 44 40 40 42 FE	00+
   2379	      00 00
1  2380	446F  00 00 FE 42 40 40	44+		     db	000,000,254,066,064,064,068,124,068,064,064,064,240,000,000,000
   2381	      7C 44 40 40 40 F0	00+
   2382	      00 00
1  2383	447F  00 00 3E 42 82 80	80+		     db	000,000,062,066,130,128,128,158,130,130,130,066,062,000,000,000
   2384	      9E 82 82 82 42 3E	00+
   2385	      00 00
1  2386	448F  00 00 E6 42 42 42	42+		     db	000,000,230,066,066,066,066,126,066,066,066,066,230,000,000,000
   2387	      7E 42 42 42 42 E6	00+
   2388	      00 00
1  2389	449F  00 00 7C 10 10 10	10+		     db	000,000,124,016,016,016,016,016,016,016,016,016,124,000,000,000
   2390	      10 10 10 10 10 7C	00+
   2391	      00 00
1  2392	44AF  00 00 1E 04 04 04	04+		     db	000,000,030,004,004,004,004,004,004,132,132,132,120,000,000,000
   2393	      04 04 84 84 84 78	00+
   2394	      00 00
Turbo Assembler	 Version 3.2	    03/09/00 02:20:48	    Page 43
my.asm



1  2395	44BF  00 00 CE 84 88 90	A0+		     db	000,000,206,132,136,144,160,208,136,136,132,132,206,000,000,000
   2396	      D0 88 88 84 84 CE	00+
   2397	      00 00
1  2398	44CF  00 00 E0 40 40 40	40+		     db	000,000,224,064,064,064,064,064,064,064,066,066,254,000,000,000
   2399	      40 40 40 42 42 FE	00+
   2400	      00 00
1  2401	44DF  00 00 C6 C6 AA AA	92+		     db	000,000,198,198,170,170,146,146,130,130,130,130,198,000,000,000
   2402	      92 82 82 82 82 C6	00+
   2403	      00 00
1  2404	44EF  00 00 C6 42 62 52	52+		     db	000,000,198,066,098,082,082,074,074,074,070,066,226,000,000,000
   2405	      4A 4A 4A 46 42 E2	00+
   2406	      00 00
1  2407	44FF  00 00 38 44 82 82	82+		     db	000,000,056,068,130,130,130,130,130,130,130,068,056,000,000,000
   2408	      82 82 82 82 44 38	00+
   2409	      00 00
1  2410	450F  00 00 FC 42 42 42	42+		     db	000,000,252,066,066,066,066,066,124,064,064,064,224,000,000,000
   2411	      42 7C 40 40 40 E0	00+
   2412	      00 00
1  2413	451F  00 00 38 44 82 82	82+		     db	000,000,056,068,130,130,130,130,130,130,146,076,056,004,000,000
   2414	      82 82 82 92 4C 38	04+
   2415	      00 00
1  2416	452F  00 00 F8 44 44 44	44+		     db	000,000,248,068,068,068,068,120,080,072,068,068,238,000,000,000
   2417	      78 50 48 44 44 EE	00+
   2418	      00 00
1  2419	453F  00 00 3C 42 42 40	40+		     db	000,000,060,066,066,064,064,060,002,002,066,066,060,000,000,000
   2420	      3C 02 02 42 42 3C	00+
   2421	      00 00
1  2422	454F  00 00 FE 92 92 10	10+		     db	000,000,254,146,146,016,016,016,016,016,016,016,056,000,000,000
   2423	      10 10 10 10 10 38	00+
   2424	      00 00
1  2425	455F  00 00 E6 42 42 42	42+		     db	000,000,230,066,066,066,066,066,066,066,066,066,060,000,000,000
   2426	      42 42 42 42 42 3C	00+
   2427	      00 00
1  2428	456F  00 00 C6 82 82 44	44+		     db	000,000,198,130,130,068,068,068,040,040,040,016,016,000,000,000
   2429	      44 28 28 28 10 10	00+
   2430	      00 00
1  2431	457F  00 00 C6 82 82 92	92+		     db	000,000,198,130,130,146,146,084,084,084,040,040,040,000,000,000
   2432	      54 54 54 28 28 28	00+
   2433	      00 00
1  2434	458F  00 00 C6 82 44 44	28+		     db	000,000,198,130,068,068,040,016,040,068,068,130,198,000,000,000
   2435	      10 28 44 44 82 C6	00+
   2436	      00 00
1  2437	459F  00 00 C6 82 44 44	28+		     db	000,000,198,130,068,068,040,040,016,016,016,016,056,000,000,000
   2438	      28 10 10 10 10 38	00+
   2439	      00 00
1  2440	45AF  00 00 7E 42 04 04	08+		     db	000,000,126,066,004,004,008,016,016,032,032,066,126,000,000,000
   2441	      10 10 20 20 42 7E	00+
   2442	      00 00
1  2443	45BF  00 3C 20 20 20 20	20+		     db	000,060,032,032,032,032,032,032,032,032,032,032,032,060,000,000
   2444	      20 20 20 20 20 20	3C+
   2445	      00 00
1  2446	45CF  00 40 40 20 20 10	10+		     db	000,064,064,032,032,016,016,008,008,008,004,004,002,002,000,000
   2447	      08 08 08 04 04 02	02+
   2448	      00 00
1  2449	45DF  00 78 08 08 08 08	08+		     db	000,120,008,008,008,008,008,008,008,008,008,008,008,120,000,000
   2450	      08 08 08 08 08 08	78+
   2451	      00 00
Turbo Assembler	 Version 3.2	    03/09/00 02:20:48	    Page 44
my.asm



1  2452	45EF  00 10 28 44 82 00	00+		     db	000,016,040,068,130,000,000,000,000,000,000,000,000,000,000,000
   2453	      00 00 00 00 00 00	00+
   2454	      00 00
1  2455	45FF  00 00 00 00 00 00	00+		     db	000,000,000,000,000,000,000,000,000,000,000,000,000,000,255,000
   2456	      00 00 00 00 00 00	00+
   2457	      FF 00
1  2458	460F  00 20 20 10 10 00	00+		     db	000,032,032,016,016,000,000,000,000,000,000,000,000,000,000,000
   2459	      00 00 00 00 00 00	00+
   2460	      00 00
1  2461	461F  00 00 00 00 00 78	84+		     db	000,000,000,000,000,120,132,004,124,132,132,140,118,000,000,000
   2462	      04 7C 84 84 8C 76	00+
   2463	      00 00
1  2464	462F  00 00 C0 40 40 5C	62+		     db	000,000,192,064,064,092,098,066,066,066,066,098,220,000,000,000
   2465	      42 42 42 42 62 DC	00+
   2466	      00 00
1  2467	463F  00 00 00 00 00 3E	42+		     db	000,000,000,000,000,062,066,064,064,064,066,066,060,000,000,000
   2468	      40 40 40 42 42 3C	00+
   2469	      00 00
1  2470	464F  00 00 0C 04 04 74	8C+		     db	000,000,012,004,004,116,140,132,132,132,132,140,118,000,000,000
   2471	      84 84 84 84 8C 76	00+
   2472	      00 00
1  2473	465F  00 00 00 00 00 3C	42+		     db	000,000,000,000,000,060,066,066,126,064,064,066,060,000,000,000
   2474	      42 7E 40 40 42 3C	00+
   2475	      00 00
1  2476	466F  00 0C 10 10 10 7C	10+		     db	000,012,016,016,016,124,016,016,016,016,016,016,124,000,000,000
   2477	      10 10 10 10 10 7C	00+
   2478	      00 00
1  2479	467F  00 00 00 00 00 76	8C+		     db	000,000,000,000,000,118,140,132,132,132,140,116,004,132,120,000
   2480	      84 84 84 8C 74 04	84+
   2481	      78 00
1  2482	468F  00 00 C0 40 40 5C	62+		     db	000,000,192,064,064,092,098,066,066,066,066,066,226,000,000,000
   2483	      42 42 42 42 42 E2	00+
   2484	      00 00
1  2485	469F  00 18 18 00 00 38	08+		     db	000,024,024,000,000,056,008,008,008,008,008,008,126,000,000,000
   2486	      08 08 08 08 08 7E	00+
   2487	      00 00
1  2488	46AF  00 0C 0C 00 00 1C	04+		     db	000,012,012,000,000,028,004,004,004,004,004,004,068,068,056,000
   2489	      04 04 04 04 04 44	44+
   2490	      38 00
1  2491	46BF  00 00 C0 40 40 4E	44+		     db	000,000,192,064,064,078,068,072,080,104,068,066,198,000,000,000
   2492	      48 50 68 44 42 C6	00+
   2493	      00 00
1  2494	46CF  00 00 38 08 08 08	08+		     db	000,000,056,008,008,008,008,008,008,008,008,008,126,000,000,000
   2495	      08 08 08 08 08 7E	00+
   2496	      00 00
1  2497	46DF  00 00 00 00 00 AC	D2+		     db	000,000,000,000,000,172,210,146,146,146,146,146,214,000,000,000
   2498	      92 92 92 92 92 D6	00+
   2499	      00 00
1  2500	46EF  00 00 00 00 00 DC	62+		     db	000,000,000,000,000,220,098,066,066,066,066,066,230,000,000,000
   2501	      42 42 42 42 42 E6	00+
   2502	      00 00
1  2503	46FF  00 00 00 00 00 38	44+		     db	000,000,000,000,000,056,068,130,130,130,130,068,056,000,000,000
   2504	      82 82 82 82 44 38	00+
   2505	      00 00
1  2506	470F  00 00 00 00 00 DC	62+		     db	000,000,000,000,000,220,098,066,066,066,066,098,092,064,224,000
   2507	      42 42 42 42 62 5C	40+
   2508	      E0 00
Turbo Assembler	 Version 3.2	    03/09/00 02:20:48	    Page 45
my.asm



1  2509	471F  00 00 00 00 00 74	8C+		     db	000,000,000,000,000,116,140,132,132,132,132,140,116,004,006,000
   2510	      84 84 84 84 8C 74	04+
   2511	      06 00
1  2512	472F  00 00 00 00 00 6E	32+		     db	000,000,000,000,000,110,050,032,032,032,032,032,112,000,000,000
   2513	      20 20 20 20 20 70	00+
   2514	      00 00
1  2515	473F  00 00 00 00 00 3E	42+		     db	000,000,000,000,000,062,066,064,048,012,002,066,124,000,000,000
   2516	      40 30 0C 02 42 7C	00+
   2517	      00 00
1  2518	474F  00 00 20 20 20 FC	20+		     db	000,000,032,032,032,252,032,032,032,032,032,032,028,000,000,000
   2519	      20 20 20 20 20 1C	00+
   2520	      00 00
1  2521	475F  00 00 00 00 00 E6	42+		     db	000,000,000,000,000,230,066,066,066,066,066,070,058,000,000,000
   2522	      42 42 42 42 46 3A	00+
   2523	      00 00
1  2524	476F  00 00 00 00 00 C6	82+		     db	000,000,000,000,000,198,130,130,068,068,040,040,016,000,000,000
   2525	      82 44 44 28 28 10	00+
   2526	      00 00
1  2527	477F  00 00 00 00 00 C6	82+		     db	000,000,000,000,000,198,130,146,146,146,084,108,068,000,000,000
   2528	      92 92 92 54 6C 44	00+
   2529	      00 00
1  2530	478F  00 00 00 00 00 EE	44+		     db	000,000,000,000,000,238,068,040,016,016,040,068,238,000,000,000
   2531	      28 10 10 28 44 EE	00+
   2532	      00 00
1  2533	479F  00 00 00 00 00 C6	82+		     db	000,000,000,000,000,198,130,068,068,040,040,016,016,032,112,000
   2534	      44 44 28 28 10 10	20+
   2535	      70 00
1  2536	47AF  00 00 00 00 00 7E	42+		     db	000,000,000,000,000,126,066,004,008,016,032,066,126,000,000,000
   2537	      04 08 10 20 42 7E	00+
   2538	      00 00
1  2539	47BF  00 0C 10 10 10 10	10+		     db	000,012,016,016,016,016,016,096,016,016,016,016,016,012,000,000
   2540	      60 10 10 10 10 10	0C+
   2541	      00 00
1  2542	47CF  00 00 10 10 10 10	10+		     db	000,000,016,016,016,016,016,000,016,016,016,016,016,000,000,000
   2543	      00 10 10 10 10 10	00+
   2544	      00 00
1  2545	47DF  00 60 10 10 10 10	10+		     db	000,096,016,016,016,016,016,012,016,016,016,016,016,096,000,000
   2546	      0C 10 10 10 10 10	60+
   2547	      00 00
1  2548	47EF  00 60 92 92 0C 00	00+		     db	000,096,146,146,012,000,000,000,000,000,000,000,000,000,000,000
   2549	      00 00 00 00 00 00	00+
   2550	      00 00
1  2551	47FF  00 00 00 00 10 10	28+		     db	000,000,000,000,016,016,040,040,068,068,130,130,254,000,000,000
   2552	      28 44 44 82 82 FE	00+
   2553	      00 00
1  2554	480F  00 00 1E 22 42 42	42+		     db	000,000,030,034,066,066,066,066,126,066,066,066,194,000,000,000
   2555	      42 7E 42 42 42 C2	00+
   2556	      00 00
1  2557	481F  00 00 FE 42 40 40	7C+		     db	000,000,254,066,064,064,124,066,066,066,066,066,252,000,000,000
   2558	      42 42 42 42 42 FC	00+
   2559	      00 00
1  2560	482F  00 00 FC 42 42 42	42+		     db	000,000,252,066,066,066,066,124,066,066,066,066,252,000,000,000
   2561	      7C 42 42 42 42 FC	00+
   2562	      00 00
1  2563	483F  00 00 FE 42 40 40	40+		     db	000,000,254,066,064,064,064,064,064,064,064,064,240,000,000,000
   2564	      40 40 40 40 40 F0	00+
   2565	      00 00
Turbo Assembler	 Version 3.2	    03/09/00 02:20:48	    Page 46
my.asm



1  2566	484F  00 00 3E 14 14 14	24+		     db	000,000,062,020,020,020,036,036,036,068,068,068,254,130,130,000
   2567	      24 24 44 44 44 FE	82+
   2568	      82 00
1  2569	485F  00 00 FE 42 40 40	44+		     db	000,000,254,066,064,064,068,124,068,064,064,066,254,000,000,000
   2570	      7C 44 40 40 42 FE	00+
   2571	      00 00
1  2572	486F  00 00 D6 54 54 54	54+		     db	000,000,214,084,084,084,084,056,084,084,084,084,214,000,000,000
   2573	      38 54 54 54 54 D6	00+
   2574	      00 00
1  2575	487F  00 00 3C 42 42 02	04+		     db	000,000,060,066,066,002,004,056,004,002,130,130,124,000,000,000
   2576	      38 04 02 82 82 7C	00+
   2577	      00 00
1  2578	488F  00 00 E6 42 42 46	4A+		     db	000,000,230,066,066,070,074,082,098,066,066,066,230,000,000,000
   2579	      52 62 42 42 42 E6	00+
   2580	      00 00
1  2581	489F  38 00 E6 42 42 46	4A+		     db	056,000,230,066,066,070,074,082,098,066,066,066,230,000,000,000
   2582	      52 62 42 42 42 E6	00+
   2583	      00 00
1  2584	48AF  00 00 CE 84 88 90	A0+		     db	000,000,206,132,136,144,160,208,136,136,132,132,206,000,000,000
   2585	      D0 88 88 84 84 CE	00+
   2586	      00 00
1  2587	48BF  00 00 3E 14 14 14	24+		     db	000,000,062,020,020,020,036,036,036,068,068,068,206,000,000,000
   2588	      24 24 44 44 44 CE	00+
   2589	      00 00
1  2590	48CF  00 00 C6 C6 AA AA	92+		     db	000,000,198,198,170,170,146,146,130,130,130,130,198,000,000,000
   2591	      92 82 82 82 82 C6	00+
   2592	      00 00
1  2593	48DF  00 00 E6 42 42 42	42+		     db	000,000,230,066,066,066,066,126,066,066,066,066,230,000,000,000
   2594	      7E 42 42 42 42 E6	00+
   2595	      00 00
1  2596	48EF  00 00 3C 42 42 42	42+		     db	000,000,060,066,066,066,066,066,066,066,066,066,060,000,000,000
   2597	      42 42 42 42 42 3C	00+
   2598	      00 00
1  2599	48FF  00 00 FE 42 42 42	42+		     db	000,000,254,066,066,066,066,066,066,066,066,066,230,000,000,000
   2600	      42 42 42 42 42 E6	00+
   2601	      00 00
1  2602	490F  00 00 FC 42 42 42	42+		     db	000,000,252,066,066,066,066,066,066,124,064,064,224,000,000,000
   2603	      42 42 7C 40 40 E0	00+
   2604	      00 00
1  2605	491F  00 00 3C 42 42 40	40+		     db	000,000,060,066,066,064,064,064,064,066,066,066,060,000,000,000
   2606	      40 40 42 42 42 3C	00+
   2607	      00 00
1  2608	492F  00 00 FE 92 92 10	10+		     db	000,000,254,146,146,016,016,016,016,016,016,016,056,000,000,000
   2609	      10 10 10 10 10 38	00+
   2610	      00 00
1  2611	493F  00 00 C6 82 44 44	28+		     db	000,000,198,130,068,068,040,040,016,016,032,032,192,000,000,000
   2612	      28 10 10 20 20 C0	00+
   2613	      00 00
1  2614	494F  00 10 7C 92 92 92	92+		     db	000,016,124,146,146,146,146,146,146,146,146,146,124,016,056,000
   2615	      92 92 92 92 92 7C	10+
   2616	      38 00
1  2617	495F  00 00 EE 44 44 28	28+		     db	000,000,238,068,068,040,040,016,040,040,068,068,238,000,000,000
   2618	      10 28 28 44 44 EE	00+
   2619	      00 00
1  2620	496F  00 00 EE 44 44 44	44+		     db	000,000,238,068,068,068,068,068,068,068,068,068,254,002,002,000
   2621	      44 44 44 44 44 FE	02+
   2622	      02 00
Turbo Assembler	 Version 3.2	    03/09/00 02:20:48	    Page 47
my.asm



1  2623	497F  00 00 EE 44 44 44	44+		     db	000,000,238,068,068,068,068,068,060,004,004,004,014,000,000,000
   2624	      44 3C 04 04 04 0E	00+
   2625	      00 00
1  2626	498F  00 00 EE 44 44 44	54+		     db	000,000,238,068,068,068,084,084,084,084,084,084,254,000,000,000
   2627	      54 54 54 54 54 FE	00+
   2628	      00 00
1  2629	499F  00 00 EE 44 44 44	54+		     db	000,000,238,068,068,068,084,084,084,084,084,084,254,002,002,000
   2630	      54 54 54 54 54 FE	02+
   2631	      02 00
1  2632	49AF  00 00 F0 A0 A0 A0	20+		     db	000,000,240,160,160,160,032,060,034,034,034,034,252,000,000,000
   2633	      3C 22 22 22 22 FC	00+
   2634	      00 00
1  2635	49BF  00 00 E6 42 42 42	42+		     db	000,000,230,066,066,066,066,114,074,074,074,074,246,000,000,000
   2636	      72 4A 4A 4A 4A F6	00+
   2637	      00 00
1  2638	49CF  00 00 E0 40 40 40	40+		     db	000,000,224,064,064,064,064,124,066,066,066,066,252,000,000,000
   2639	      7C 42 42 42 42 FC	00+
   2640	      00 00
1  2641	49DF  00 00 38 44 02 02	22+		     db	000,000,056,068,002,002,034,062,034,002,002,068,056,000,000,000
   2642	      3E 22 02 02 44 38	00+
   2643	      00 00
1  2644	49EF  00 00 CC 92 92 92	92+		     db	000,000,204,146,146,146,146,242,146,146,146,146,204,000,000,000
   2645	      F2 92 92 92 92 CC	00+
   2646	      00 00
1  2647	49FF  00 00 7E 84 84 84	84+		     db	000,000,126,132,132,132,132,124,020,036,036,068,206,000,000,000
   2648	      7C 14 24 24 44 CE	00+
   2649	      00 00
1  2650	4A0F  00 00 00 00 00 78	84+		     db	000,000,000,000,000,120,132,004,124,132,132,132,126,000,000,000
   2651	      04 7C 84 84 84 7E	00+
   2652	      00 00
1  2653	4A1F  00 02 3C 40 40 5C	62+		     db	000,002,060,064,064,092,098,066,066,066,066,066,060,000,000,000
   2654	      42 42 42 42 42 3C	00+
   2655	      00 00
1  2656	4A2F  00 00 00 00 00 FC	42+		     db	000,000,000,000,000,252,066,066,124,066,066,066,252,000,000,000
   2657	      42 7C 42 42 42 FC	00+
   2658	      00 00
1  2659	4A3F  00 00 00 00 00 FE	42+		     db	000,000,000,000,000,254,066,064,064,064,064,064,224,000,000,000
   2660	      40 40 40 40 40 E0	00+
   2661	      00 00
1  2662	4A4F  00 00 00 00 00 3E	14+		     db	000,000,000,000,000,062,020,020,036,036,068,068,254,130,130,000
   2663	      14 24 24 44 44 FE	82+
   2664	      82 00
1  2665	4A5F  00 00 00 00 00 3C	42+		     db	000,000,000,000,000,060,066,066,126,064,064,066,060,000,000,000
   2666	      42 7E 40 40 42 3C	00+
   2667	      00 00
1  2668	4A6F  00 00 00 00 00 D6	54+		     db	000,000,000,000,000,214,084,084,084,056,084,084,214,000,000,000
   2669	      54 54 38 54 54 D6	00+
   2670	      00 00
1  2671	4A7F  00 00 00 00 00 3C	42+		     db	000,000,000,000,000,060,066,002,028,002,002,066,060,000,000,000
   2672	      02 1C 02 02 42 3C	00+
   2673	      00 00
1  2674	4A8F  00 00 00 00 00 EE	44+		     db	000,000,000,000,000,238,068,068,076,084,100,068,238,000,000,000
   2675	      44 4C 54 64 44 EE	00+
   2676	      00 00
1  2677	4A9F  00 00 00 38 00 EE	44+		     db	000,000,000,056,000,238,068,068,076,084,100,068,238,000,000,000
   2678	      44 4C 54 64 44 EE	00+
   2679	      00 00
Turbo Assembler	 Version 3.2	    03/09/00 02:20:48	    Page 48
my.asm



1  2680	4AAF  00 00 00 00 00 C6	44+		     db	000,000,000,000,000,198,068,072,080,104,072,068,198,000,000,000
   2681	      48 50 68 48 44 C6	00+
   2682	      00 00
1  2683	4ABF  00 00 00 00 00 3E	14+		     db	000,000,000,000,000,062,020,020,036,036,068,068,238,000,000,000
   2684	      14 24 24 44 44 EE	00+
   2685	      00 00
1  2686	4ACF  00 00 00 00 00 C6	C6+		     db	000,000,000,000,000,198,198,170,170,146,146,130,198,000,000,000
   2687	      AA AA 92 92 82 C6	00+
   2688	      00 00
1  2689	4ADF  00 00 00 00 00 EE	44+		     db	000,000,000,000,000,238,068,068,068,124,068,068,238,000,000,000
   2690	      44 44 7C 44 44 EE	00+
   2691	      00 00
1  2692	4AEF  00 00 00 00 00 3C	42+		     db	000,000,000,000,000,060,066,066,066,066,066,066,060,000,000,000
   2693	      42 42 42 42 42 3C	00+
   2694	      00 00
1  2695	4AFF  00 00 00 00 00 FE	44+		     db	000,000,000,000,000,254,068,068,068,068,068,068,238,000,000,000
   2696	      44 44 44 44 44 EE	00+
   2697	      00 00
1  2698	4B0F  22 22 88 88 22 22	88+		     db	034,034,136,136,034,034,136,136,034,034,136,136,034,034,136,136
   2699	      88 22 22 88 88 22	22+
   2700	      88 88
1  2701	4B1F  55 55 AA AA 55 55	AA+		     db	085,085,170,170,085,085,170,170,085,085,170,170,085,085,170,170
   2702	      AA 55 55 AA AA 55	55+
   2703	      AA AA
1  2704	4B2F  DB DB 77 77 DB DB	EE+		     db	219,219,119,119,219,219,238,238,219,219,119,119,219,219,238,238
   2705	      EE DB DB 77 77 DB	DB+
   2706	      EE EE
1  2707	4B3F  10 10 10 10 10 10	10+		     db	016,016,016,016,016,016,016,016,016,016,016,016,016,016,016,016
   2708	      10 10 10 10 10 10	10+
   2709	      10 10
1  2710	4B4F  10 10 10 10 10 10	10+		     db	016,016,016,016,016,016,016,048,224,048,016,016,016,016,016,016
   2711	      30 E0 30 10 10 10	10+
   2712	      10 10
1  2713	4B5F  10 10 10 10 70 D0	10+		     db	016,016,016,016,112,208,016,016,208,112,016,016,016,016,016,016
   2714	      10 D0 70 10 10 10	10+
   2715	      10 10
1  2716	4B6F  14 14 14 14 14 14	14+		     db	020,020,020,020,020,020,020,052,228,052,020,020,020,020,020,020
   2717	      34 E4 34 14 14 14	14+
   2718	      14 14
1  2719	4B7F  00 00 00 00 00 00	00+		     db	000,000,000,000,000,000,000,000,248,044,052,020,020,020,020,020
   2720	      00 F8 2C 34 14 14	14+
   2721	      14 14
1  2722	4B8F  00 00 00 00 00 E0	30+		     db	000,000,000,000,000,224,048,016,208,112,016,016,016,016,016,016
   2723	      10 D0 70 10 10 10	10+
   2724	      10 10
1  2725	4B9F  14 14 14 14 34 E4	04+		     db	020,020,020,020,052,228,004,004,228,052,020,020,020,020,020,020
   2726	      04 E4 34 14 14 14	14+
   2727	      14 14
1  2728	4BAF  14 14 14 14 14 14	14+		     db	020,020,020,020,020,020,020,020,020,020,020,020,020,020,020,020
   2729	      14 14 14 14 14 14	14+
   2730	      14 14
1  2731	4BBF  00 00 00 00 00 F8	0C+		     db	000,000,000,000,000,248,012,004,228,052,020,020,020,020,020,020
   2732	      04 E4 34 14 14 14	14+
   2733	      14 14
1  2734	4BCF  14 14 14 14 34 E4	04+		     db	020,020,020,020,052,228,004,012,248,000,000,000,000,000,000,000
   2735	      0C F8 00 00 00 00	00+
   2736	      00 00
Turbo Assembler	 Version 3.2	    03/09/00 02:20:48	    Page 49
my.asm



1  2737	4BDF  14 14 14 14 14 14	34+		     db	020,020,020,020,020,020,052,044,248,000,000,000,000,000,000,000
   2738	      2C F8 00 00 00 00	00+
   2739	      00 00
1  2740	4BEF  10 10 10 10 70 D0	10+		     db	016,016,016,016,112,208,016,048,224,000,000,000,000,000,000,000
   2741	      30 E0 00 00 00 00	00+
   2742	      00 00
1  2743	4BFF  00 00 00 00 00 00	00+		     db	000,000,000,000,000,000,000,000,224,048,016,016,016,016,016,016
   2744	      00 E0 30 10 10 10	10+
   2745	      10 10
1  2746	4C0F  10 10 10 10 10 10	10+		     db	016,016,016,016,016,016,016,024,015,000,000,000,000,000,000,000
   2747	      18 0F 00 00 00 00	00+
   2748	      00 00
1  2749	4C1F  10 10 10 10 10 10	10+		     db	016,016,016,016,016,016,016,056,239,000,000,000,000,000,000,000
   2750	      38 EF 00 00 00 00	00+
   2751	      00 00
1  2752	4C2F  00 00 00 00 00 00	00+		     db	000,000,000,000,000,000,000,000,239,056,016,016,016,016,016,016
   2753	      00 EF 38 10 10 10	10+
   2754	      10 10
1  2755	4C3F  10 10 10 10 10 10	10+		     db	016,016,016,016,016,016,016,024,015,024,016,016,016,016,016,016
   2756	      18 0F 18 10 10 10	10+
   2757	      10 10
1  2758	4C4F  00 00 00 00 00 00	00+		     db	000,000,000,000,000,000,000,000,255,000,000,000,000,000,000,000
   2759	      00 FF 00 00 00 00	00+
   2760	      00 00
1  2761	4C5F  10 10 10 10 10 10	10+		     db	016,016,016,016,016,016,016,056,239,056,016,016,016,016,016,016
   2762	      38 EF 38 10 10 10	10+
   2763	      10 10
1  2764	4C6F  10 10 10 10 1C 17	10+		     db	016,016,016,016,028,023,016,016,023,028,016,016,016,016,016,016
   2765	      10 17 1C 10 10 10	10+
   2766	      10 10
1  2767	4C7F  14 14 14 14 14 14	14+		     db	020,020,020,020,020,020,020,022,019,022,020,020,020,020,020,020
   2768	      16 13 16 14 14 14	14+
   2769	      14 14
1  2770	4C8F  14 14 14 14 16 13	10+		     db	020,020,020,020,022,019,016,024,015,000,000,000,000,000,000,000
   2771	      18 0F 00 00 00 00	00+
   2772	      00 00
1  2773	4C9F  00 00 00 00 00 0F	18+		     db	000,000,000,000,000,015,024,016,019,022,020,020,020,020,020,020
   2774	      10 13 16 14 14 14	14+
   2775	      14 14
1  2776	4CAF  14 14 14 14 36 E3	00+		     db	020,020,020,020,054,227,000,000,255,000,000,000,000,000,000,000
   2777	      00 FF 00 00 00 00	00+
   2778	      00 00
1  2779	4CBF  00 00 00 00 00 FF	00+		     db	000,000,000,000,000,255,000,000,227,054,020,020,020,020,020,020
   2780	      00 E3 36 14 14 14	14+
   2781	      14 14
1  2782	4CCF  14 14 14 14 16 13	10+		     db	020,020,020,020,022,019,016,016,019,022,020,020,020,020,020,020
   2783	      10 13 16 14 14 14	14+
   2784	      14 14
1  2785	4CDF  00 00 00 00 00 FF	00+		     db	000,000,000,000,000,255,000,000,255,000,000,000,000,000,000,000
   2786	      00 FF 00 00 00 00	00+
   2787	      00 00
1  2788	4CEF  14 14 14 14 36 E3	00+		     db	020,020,020,020,054,227,000,000,227,054,020,020,020,020,020,020
   2789	      00 E3 36 14 14 14	14+
   2790	      14 14
1  2791	4CFF  10 10 10 10 38 EF	00+		     db	016,016,016,016,056,239,000,000,255,000,000,000,000,000,000,000
   2792	      00 FF 00 00 00 00	00+
   2793	      00 00
Turbo Assembler	 Version 3.2	    03/09/00 02:20:48	    Page 50
my.asm



1  2794	4D0F  14 14 14 14 14 14	36+		     db	020,020,020,020,020,020,054,034,255,000,000,000,000,000,000,000
   2795	      22 FF 00 00 00 00	00+
   2796	      00 00
1  2797	4D1F  00 00 00 00 00 FF	00+		     db	000,000,000,000,000,255,000,000,239,056,016,016,016,016,016,016
   2798	      00 EF 38 10 10 10	10+
   2799	      10 10
1  2800	4D2F  00 00 00 00 00 00	00+		     db	000,000,000,000,000,000,000,000,255,034,054,020,020,020,020,020
   2801	      00 FF 22 36 14 14	14+
   2802	      14 14
1  2803	4D3F  14 14 14 14 14 14	16+		     db	020,020,020,020,020,020,022,026,015,000,000,000,000,000,000,000
   2804	      1A 0F 00 00 00 00	00+
   2805	      00 00
1  2806	4D4F  10 10 10 10 1C 17	10+		     db	016,016,016,016,028,023,016,024,015,000,000,000,000,000,000,000
   2807	      18 0F 00 00 00 00	00+
   2808	      00 00
1  2809	4D5F  00 00 00 00 00 0F	18+		     db	000,000,000,000,000,015,024,016,023,028,016,016,016,016,016,016
   2810	      10 17 1C 10 10 10	10+
   2811	      10 10
1  2812	4D6F  00 00 00 00 00 00	00+		     db	000,000,000,000,000,000,000,000,015,026,022,020,020,020,020,020
   2813	      00 0F 1A 16 14 14	14+
   2814	      14 14
1  2815	4D7F  14 14 14 14 14 14	36+		     db	020,020,020,020,020,020,054,034,255,034,054,020,020,020,020,020
   2816	      22 FF 22 36 14 14	14+
   2817	      14 14
1  2818	4D8F  10 10 10 10 7C D7	10+		     db	016,016,016,016,124,215,016,016,215,124,016,016,016,016,016,016
   2819	      10 D7 7C 10 10 10	10+
   2820	      10 10
1  2821	4D9F  10 10 10 10 10 10	10+		     db	016,016,016,016,016,016,016,048,224,000,000,000,000,000,000,000
   2822	      30 E0 00 00 00 00	00+
   2823	      00 00
1  2824	4DAF  00 00 00 00 00 00	00+		     db	000,000,000,000,000,000,000,000,015,024,016,016,016,016,016,016
   2825	      00 0F 18 10 10 10	10+
   2826	      10 10
1  2827	4DBF  FF FF FF FF FF FF	FF+		     db	255,255,255,255,255,255,255,255,255,255,255,255,255,255,255,255
   2828	      FF FF FF FF FF FF	FF+
   2829	      FF FF
1  2830	4DCF  00 00 00 00 00 00	00+		     db	000,000,000,000,000,000,000,000,255,255,255,255,255,255,255,255
   2831	      00 FF FF FF FF FF	FF+
   2832	      FF FF
1  2833	4DDF  F0 F0 F0 F0 F0 F0	F0+		     db	240,240,240,240,240,240,240,240,240,240,240,240,240,240,240,240
   2834	      F0 F0 F0 F0 F0 F0	F0+
   2835	      F0 F0
1  2836	4DEF  0F 0F 0F 0F 0F 0F	0F+		     db	015,015,015,015,015,015,015,015,015,015,015,015,015,015,015,015
   2837	      0F 0F 0F 0F 0F 0F	0F+
   2838	      0F 0F
1  2839	4DFF  FF FF FF FF FF FF	FF+		     db	255,255,255,255,255,255,255,255,000,000,000,000,000,000,000,000
   2840	      FF 00 00 00 00 00	00+
   2841	      00 00
1  2842	4E0F  00 00 00 00 00 DC	62+		     db	000,000,000,000,000,220,098,066,066,066,066,066,124,064,224,000
   2843	      42 42 42 42 42 7C	40+
   2844	      E0 00
1  2845	4E1F  00 00 00 00 00 3C	42+		     db	000,000,000,000,000,060,066,064,064,064,066,066,060,000,000,000
   2846	      40 40 40 42 42 3C	00+
   2847	      00 00
1  2848	4E2F  00 00 00 00 00 FE	92+		     db	000,000,000,000,000,254,146,016,016,016,016,016,056,000,000,000
   2849	      10 10 10 10 10 38	00+
   2850	      00 00
Turbo Assembler	 Version 3.2	    03/09/00 02:20:48	    Page 51
my.asm



1  2851	4E3F  00 00 00 00 00 C6	82+		     db	000,000,000,000,000,198,130,068,068,040,040,016,016,032,192,000
   2852	      44 44 28 28 10 10	20+
   2853	      C0 00
1  2854	4E4F  00 00 00 38 10 7C	92+		     db	000,000,000,056,016,124,146,146,146,146,146,146,124,016,056,000
   2855	      92 92 92 92 92 7C	10+
   2856	      38 00
1  2857	4E5F  00 00 00 00 00 EE	44+		     db	000,000,000,000,000,238,068,040,016,016,040,068,238,000,000,000
   2858	      28 10 10 28 44 EE	00+
   2859	      00 00
1  2860	4E6F  00 00 00 00 00 EE	44+		     db	000,000,000,000,000,238,068,068,068,068,068,068,254,002,002,000
   2861	      44 44 44 44 44 FE	02+
   2862	      02 00
1  2863	4E7F  00 00 00 00 00 EE	44+		     db	000,000,000,000,000,238,068,068,068,060,004,004,014,000,000,000
   2864	      44 44 3C 04 04 0E	00+
   2865	      00 00
1  2866	4E8F  00 00 00 00 00 EE	44+		     db	000,000,000,000,000,238,068,068,084,084,084,084,254,000,000,000
   2867	      44 54 54 54 54 FE	00+
   2868	      00 00
1  2869	4E9F  00 00 00 00 00 EE	44+		     db	000,000,000,000,000,238,068,068,084,084,084,084,254,002,002,000
   2870	      44 54 54 54 54 FE	02+
   2871	      02 00
1  2872	4EAF  00 00 00 00 00 F0	A0+		     db	000,000,000,000,000,240,160,160,060,034,034,034,124,000,000,000
   2873	      A0 3C 22 22 22 7C	00+
   2874	      00 00
1  2875	4EBF  00 00 00 00 00 E6	42+		     db	000,000,000,000,000,230,066,066,114,074,074,074,246,000,000,000
   2876	      42 72 4A 4A 4A F6	00+
   2877	      00 00
1  2878	4ECF  00 00 00 00 00 E0	40+		     db	000,000,000,000,000,224,064,064,124,066,066,066,252,000,000,000
   2879	      40 7C 42 42 42 FC	00+
   2880	      00 00
1  2881	4EDF  00 00 00 00 00 38	44+		     db	000,000,000,000,000,056,068,002,030,002,002,068,056,000,000,000
   2882	      02 1E 02 02 44 38	00+
   2883	      00 00
1  2884	4EEF  00 00 00 00 00 CC	92+		     db	000,000,000,000,000,204,146,146,146,242,146,146,204,000,000,000
   2885	      92 92 F2 92 92 CC	00+
   2886	      00 00
1  2887	4EFF  00 00 00 00 00 7E	84+		     db	000,000,000,000,000,126,132,132,132,124,036,068,238,000,000,000
   2888	      84 84 7C 24 44 EE	00+
   2889	      00 00
1  2890	4F0F  00 00 00 00 7E 00	00+		     db	000,000,000,000,126,000,000,126,000,000,126,000,000,000,000,000
   2891	      7E 00 00 7E 00 00	00+
   2892	      00 00
1  2893	4F1F  00 00 00 10 10 10	FE+		     db	000,000,000,016,016,016,254,016,016,016,000,254,000,000,000,000
   2894	      10 10 10 00 FE 00	00+
   2895	      00 00
1  2896	4F2F  00 00 00 C0 30 0C	02+		     db	000,000,000,192,048,012,002,012,048,192,000,254,000,000,000,000
   2897	      0C 30 C0 00 FE 00	00+
   2898	      00 00
1  2899	4F3F  00 00 00 06 18 60	80+		     db	000,000,000,006,024,096,128,096,024,006,000,254,000,000,000,000
   2900	      60 18 06 00 FE 00	00+
   2901	      00 00
1  2902	4F4F  00 0C 12 10 10 10	10+		     db	000,012,018,016,016,016,016,016,016,016,016,016,016,016,016,016
   2903	      10 10 10 10 10 10	10+
   2904	      10 10
1  2905	4F5F  10 10 10 10 10 10	10+		     db	016,016,016,016,016,016,016,016,016,016,016,016,016,144,096,000
   2906	      10 10 10 10 10 10	90+
   2907	      60 00
Turbo Assembler	 Version 3.2	    03/09/00 02:20:48	    Page 52
my.asm



1  2908	4F6F  00 00 00 00 30 00	00+		     db	000,000,000,000,048,000,000,254,000,000,048,000,000,000,000,000
   2909	      FE 00 00 30 00 00	00+
   2910	      00 00
1  2911	4F7F  00 00 00 00 62 92	8C+		     db	000,000,000,000,098,146,140,000,098,146,140,000,000,000,000,000
   2912	      00 62 92 8C 00 00	00+
   2913	      00 00
1  2914	4F8F  00 18 24 24 18 00	00+		     db	000,024,036,036,024,000,000,000,000,000,000,000,000,000,000,000
   2915	      00 00 00 00 00 00	00+
   2916	      00 00
1  2917	4F9F  00 00 00 00 00 38	38+		     db	000,000,000,000,000,056,056,056,056,000,000,000,000,000,000,000
   2918	      38 38 00 00 00 00	00+
   2919	      00 00
1  2920	4FAF  00 00 00 00 00 00	38+		     db	000,000,000,000,000,000,056,056,000,000,000,000,000,000,000,000
   2921	      38 00 00 00 00 00	00+
   2922	      00 00
1  2923	4FBF  00 0F 08 08 08 08	88+		     db	000,015,008,008,008,008,136,136,072,072,040,040,024,000,000,000
   2924	      88 48 48 28 28 18	00+
   2925	      00 00
1  2926	4FCF  00 58 68 48 48 48	00+		     db	000,088,104,072,072,072,000,000,000,000,000,000,000,000,000,000
   2927	      00 00 00 00 00 00	00+
   2928	      00 00
1  2929	4FDF  00 30 48 10 20 78	00+		     db	000,048,072,016,032,120,000,000,000,000,000,000,000,000,000,000
   2930	      00 00 00 00 00 00	00+
   2931	      00 00
1  2932	4FEF  00 00 00 00 3C 3C	3C+		     db	000,000,000,000,060,060,060,060,060,060,000,000,000,000,000,000
   2933	      3C 3C 3C 00 00 00	00+
   2934	      00 00
1  2935	4FFF  00 00 00 00 00 00	00+		     db	000,000,000,000,000,000,000,000,000,000,000,000,000,000,000,000
   2936	      00 00 00 00 00 00	00+
   2937	      00 00
1  2938
   2939						     include palette.asm
1  2940	500F  00 00 00 00 00 2A	00+  StandardPalette db	000,000,000,000,000,042,000,042,000,000,042,042,042,000,000,042
   2941	      2A 00 00 2A 2A 2A	00+
   2942	      00 2A
1  2943	501F  00 2A 2A 15 00 2A	2A+		     db	000,042,042,021,000,042,042,042,021,021,021,021,021,063,021,063
   2944	      2A 15 15 15 15 15	3F+
   2945	      15 3F
1  2946	502F  15 15 3F 3F 3F 15	15+		     db	021,021,063,063,063,021,021,063,021,063,063,063,021,063,063,063
   2947	      3F 15 3F 3F 3F 15	3F+
   2948	      3F 3F
1  2949	503F  3F 3F 3F 3C 3C 3C	3A+		     db	063,063,063,060,060,060,058,058,058,055,055,055,053,053,053,050
   2950	      3A 3A 37 37 37 35	35+
   2951	      35 32
1  2952	504F  32 32 30 30 30 2D	2D+		     db	050,050,048,048,048,045,045,045,043,043,043,041,041,041,038,038
   2953	      2D 2B 2B 2B 29 29	29+
   2954	      26 26
1  2955	505F  26 24 24 24 21 21	21+		     db	038,036,036,036,033,033,033,031,031,031,028,028,028,026,026,026
   2956	      1F 1F 1F 1C 1C 1C	1A+
   2957	      1A 1A
1  2958	506F  17 17 17 15 15 15	12+		     db	023,023,023,021,021,021,018,018,018,016,016,016,014,014,014,011
   2959	      12 12 10 10 10 0E	0E+
   2960	      0E 0B
1  2961	507F  0B 0B 09 09 09 06	06+		     db	011,011,009,009,009,006,006,006,004,004,004,001,001,001,000,000
   2962	      06 04 04 04 01 01	01+
   2963	      00 00
1  2964	508F  00 3F 3B 37 3C 37	32+		     db	000,063,059,055,060,055,050,058,052,046,056,049,042,054,046,038
Turbo Assembler	 Version 3.2	    03/09/00 02:20:48	    Page 53
my.asm



   2965	      3A 34 2E 38 31 2A	36+
   2966	      2E 26
1  2967	509F  34 2A 22 32 28 1E	30+		     db	052,042,034,050,040,030,048,037,027,046,034,024,043,031,021,041
   2968	      25 1B 2E 22 18 2B	1F+
   2969	      15 29
1  2970	50AF  1C 12 27 1A 0F 25	18+		     db	028,018,039,026,015,037,024,013,035,021,011,033,019,008,031,017
   2971	      0D 23 15 0B 21 13	08+
   2972	      1F 11
1  2973	50BF  07 1D 0F 05 1A 0D	04+		     db	007,029,015,005,026,013,004,024,012,003,022,010,002,020,009,001
   2974	      18 0C 03 16 0A 02	14+
   2975	      09 01
1  2976	50CF  12 07 01 0F 06 00	0D+		     db	018,007,001,015,006,000,013,005,000,011,004,000,009,003,000,048
   2977	      05 00 0B 04 00 09	03+
   2978	      00 30
1  2979	50DF  33 3F 2B 2E 3C 26	2A+		     db	051,063,043,046,060,038,042,058,034,038,056,030,034,054,026,030
   2980	      3A 22 26 38 1E 22	36+
   2981	      1A 1E
1  2982	50EF  34 16 1A 31 13 16	2F+		     db	052,022,026,049,019,022,047,016,019,045,013,016,043,010,013,041
   2983	      10 13 2D 0D 10 2B	0A+
   2984	      0D 29
1  2985	50FF  08 0C 26 07 0A 24	05+		     db	008,012,038,007,010,036,005,009,034,004,008,032,003,007,030,002
   2986	      09 22 04 08 20 03	07+
   2987	      1E 02
1  2988	510F  06 1C 01 05 19 01	05+		     db	006,028,001,005,025,001,005,023,000,004,021,000,003,019,000,003
   2989	      17 00 04 15 00 03	13+
   2990	      00 03
1  2991	511F  11 2B 38 27 27 35	23+		     db	017,043,056,039,039,053,035,036,051,032,032,048,028,029,046,025
   2992	      24 33 20 20 30 1C	1D+
   2993	      2E 19
1  2994	512F  1A 2C 17 17 29 14	14+		     db	026,044,023,023,041,020,020,039,017,018,036,015,015,034,012,013
   2995	      27 11 12 24 0F 0F	22+
   2996	      0C 0D
1  2997	513F  1F 0A 0B 1D 09 09	1B+		     db	031,010,011,029,009,009,027,007,008,025,006,006,023,005,005,021
   2998	      07 08 19 06 06 17	05+
   2999	      05 15
1  3000	514F  03 03 13 02 02 10	01+		     db	003,003,019,002,002,016,001,001,014,001,001,012,000,000,010,000
   3001	      01 0E 01 01 0C 00	00+
   3002	      0A 00
1  3003	515F  00 08 00 00 06 00	3F+		     db	000,008,000,000,006,000,063,061,052,062,058,043,061,056,035,060
   3004	      3D 34 3E 3A 2B 3D	38+
   3005	      23 3C
1  3006	516F  37 1B 3B 35 14 3A	33+		     db	055,027,059,053,020,058,051,013,057,050,005,056,049,000,054,047
   3007	      0D 39 32 05 38 31	00+
   3008	      36 2F
1  3009	517F  08 34 2C 07 32 28	06+		     db	008,052,044,007,050,040,006,047,038,006,045,035,006,042,031,005
   3010	      2F 26 06 2D 23 06	2A+
   3011	      1F 05
1  3012	518F  27 1C 04 25 19 03	22+		     db	039,028,004,037,025,003,034,022,003,031,019,002,029,017,002,026
   3013	      16 03 1F 13 02 1D	11+
   3014	      02 1A
1  3015	519F  0F 00 18 0C 00 15	0A+		     db	015,000,024,012,000,021,010,000,019,008,000,057,051,062,054,047
   3016	      00 13 08 00 39 33	3E+
   3017	      36 2F
1  3018	51AF  3B 32 2A 39 30 27	36+		     db	059,050,042,057,048,039,054,045,035,052,042,031,049,039,028,047
   3019	      2D 23 34 2A 1F 31	27+
   3020	      1C 2F
1  3021	51BF  24 19 2D 21 16 2A	1E+		     db	036,025,045,033,022,042,030,019,040,028,017,037,025,014,035,023
Turbo Assembler	 Version 3.2	    03/09/00 02:20:48	    Page 54
my.asm



   3022	      13 28 1C 11 25 19	0E+
   3023	      23 17
1  3024	51CF  0C 20 14 0A 1E 12	08+		     db	012,032,020,010,030,018,008,027,016,006,025,014,005,023,011,002
   3025	      1B 10 06 19 0E 05	17+
   3026	      0B 02
1  3027	51DF  14 08 01 11 06 00	0E+		     db	020,008,001,017,006,000,014,004,000,011,045,061,063,042,058,060
   3028	      04 00 0B 2D 3D 3F	2A+
   3029	      3A 3C
1  3030	51EF  28 38 3A 25 36 38	22+		     db	040,056,058,037,054,056,034,051,053,032,049,051,030,046,049,028
   3031	      33 35 20 31 33 1E	2E+
   3032	      31 1C
1  3033	51FF  2C 2F 19 2A 2C 17	27+		     db	044,047,025,042,044,023,039,042,022,037,040,020,035,037,018,032
   3034	      2A 16 25 28 14 23	25+
   3035	      12 20
1  3036	520F  23 10 1D 20 0E 1A	1D+		     db	035,016,029,032,014,026,029,012,024,027,010,021,024,008,019,022
   3037	      0C 18 1B 0A 15 18	08+
   3038	      13 16
1  3039	521F  07 10 13 05 0E 10	04+		     db	007,016,019,005,014,016,004,011,014,003,009,011,002,007,009,063
   3040	      0B 0E 03 09 0B 02	07+
   3041	      09 3F
1  3042	522F  39 39 3D 34 34 3C	2F+		     db	057,057,061,052,052,060,047,047,058,043,043,057,039,039,055,035
   3043	      2F 3A 2B 2B 39 27	27+
   3044	      37 23
1  3045	523F  23 36 1F 1F 34 1B	1B+		     db	035,054,031,031,052,027,027,051,023,023,049,020,020,048,017,017
   3046	      33 17 17 31 14 14	30+
   3047	      11 11
1  3048	524F  2F 0E 0E 2E 0B 0B	2D+		     db	047,014,014,046,011,011,045,009,009,042,008,008,039,006,006,036
   3049	      09 09 2A 08 08 27	06+
   3050	      06 24
1  3051	525F  04 04 21 03 03 1E	02+		     db	004,004,033,003,003,030,002,002,027,001,001,024,000,000,021,000
   3052	      02 1B 01 01 18 00	00+
   3053	      15 00
1  3054	526F  00 12 00 00 3F 39	27+		     db	000,018,000,000,063,057,039,062,054,035,061,052,031,060,049,028
   3055	      3E 36 23 3D 34 1F	3C+
   3056	      31 1C
1  3057	527F  3B 2E 18 3A 2B 14	39+		     db	059,046,024,058,043,020,057,040,017,056,036,014,056,033,011,051
   3058	      28 11 38 24 0E 38	21+
   3059	      0B 33
1  3060	528F  1D 08 2E 19 06 29	16+		     db	029,008,046,025,006,041,022,004,037,018,002,032,015,001,027,012
   3061	      04 25 12 02 20 0F	01+
   3062	      1B 0C
1  3063	529F  00 17 0A 00 00 00	00+		     db	000,023,010,000,000,000,000,000,000,000,000,000,000,000,000,000
   3064	      00 00 00 00 00 00	00+
   3065	      00 00
1  3066	52AF  00 00 00 00 00 00	00+		     db	000,000,000,000,000,000,000,000,000,000,000,000,000,000,000,000
   3067	      00 00 00 00 00 00	00+
   3068	      00 00
1  3069	52BF  00 00 00 00 00 00	00+		     db	000,000,000,000,000,000,000,000,000,000,000,000,000,000,000,000
   3070	      00 00 00 00 00 00	00+
   3071	      00 00
1  3072	52CF  00 00 00 00 00 00	00+		     db	000,000,000,000,000,000,000,000,000,000,000,000,000,000,000,000
   3073	      00 00 00 00 00 00	00+
   3074	      00 00
1  3075	52DF  00 00 00 00 00 00	00+		     db	000,000,000,000,000,000,000,000,000,000,000,000,000,000,000,000
   3076	      00 00 00 00 00 00	00+
   3077	      00 00
1  3078	52EF  00 00 00 00 00 00	00+		     db	000,000,000,000,000,000,000,000,000,000,000,000,000,000,000,000
Turbo Assembler	 Version 3.2	    03/09/00 02:20:48	    Page 55
my.asm



   3079	      00 00 00 00 00 00	00+
   3080	      00 00
1  3081	52FF  00 00 00 00 00 00	00+		     db	000,000,000,000,000,000,000,000,000,000,000,000,000,000,000,000
   3082	      00 00 00 00 00 00	00+
   3083	      00 00
1  3084
   3085
   3086	530F  0000		     BackGrPg1	     dw	0	    ; Textures
   3087	5311  0000		     BackGrPg2	     dw	0	    ; Textures
   3088	5313  0000		     BackGrPg3	     dw	0	    ; Ages offset and
   3089	5315  0000		     BackGrPg4	     dw	0	    ; map contains
   3090	5317  0000		     BackGrPg5	     dw	0	    ; Second plane
   3091	5319  0000		     BackGrPg6	     dw	0	    ; images (with empty color)
   3092
   3093	531B  0000		     tmp1	     dw	0
   3094	531D  0000		     tmp2	     dw	0
   3095
   3096
   3097						     assume cs:code
   3098
   3099	531F			     Error	     proc
   3100						     ;input  : ds:dx - ErrMsg
   3101	531F  B8 0003				     mov  ax,00003h
   3102	5322  CD 10				     int  10h
   3103	5324  B4 09				     mov  ah,09h
   3104	5326  CD 21				     int  21h
   3105	5328  C3				     ret
   3106	5329			     Error	     endp
   3107
   3108
   3109	5329			     SwitchGran	     proc
   3110						     ;input  : dx - NewGran
   3111	5329  2E: 3B 16	010Fr			     cmp  dx,_GranUnit
   3112	532E  74 20				     jz	  SGNoSwitch
   3113	5330  50 53 52				     push ax bx	dx
   3114	5333  2E: 89 16	010Fr			     mov  _GranUnit,dx
   3115	5338  8B C2				     mov  ax,dx
   3116	533A  2E: 03 06	0FCDr			     add  ax,cs:BankAdder
   3117	533F  2E: F7 26	010Ar			     mul  cs:GranPerBank
   3118	5344  8B D0				     mov  dx,ax
   3119	5346  33 DB				     xor  bx,bx
   3120	5348  2E: FF 1E	000Cr			     call dword	ptr cs:WPosPtr
   3121	534D  5A 5B 58				     pop  dx bx	ax
   3122	5350  C3		     SGNoSwitch:     ret
   3123	5351			     SwitchGran	     endp
   3124
   3125
   3126	5351			     GetModeInfo     proc far
   3127	      =0002				     arg Mode:word=ArgSize
   3128	5351  55				     push bp
   3129	5352  8B EC				     mov  bp,sp
   3130	5354  06				     push es
   3131	5355  2E: C6 06	010Cr 00		     mov  _Result,0
   3132	535B  B8 4F01				     mov  ax,04F01h
   3133	535E  8B 4E 06				     mov  cx,Mode
   3134	5361  0E				     push cs
   3135	5362  07				     pop  es
Turbo Assembler	 Version 3.2	    03/09/00 02:20:48	    Page 56
my.asm



   3136	5363  BF 0000r				     mov  di,offset ModeAttrs
   3137	5366  CD 10				     int  10h
   3138	5368  3D 004F				     cmp  ax,0004Fh
   3139	536B  74 10				     jz	  GMIOk
   3140						     ErrorI 1
1  3141	536D  1E				     push ds
1  3142	536E  0E				     push cs
1  3143	536F  1F				     pop  ds
1  3144	5370  BA 0BEAr				     mov  dx,offset Error1
1  3145	5373  E8 FFA9				     call Error
1  3146	5376  1F				     pop  ds
1  3147	5377  2E: C6 06	010Cr 01		     mov  _Result,1
   3148	537D  07		     GMIOk:	     pop  es
   3149	537E  5D				     pop  bp
   3150	537F  CA 0002				     ret  ArgSize
   3151	5382			     GetModeInfo     endp
   3152
   3153	5382			     VESAInit	     proc far
   3154	      =0002				     arg Mode:word=ArgSize
   3155	5382  55				     push bp
   3156	5383  8B EC				     mov  bp,sp
   3157	5385  50 53 51 52 1E 06			     push ax bx	cx dx ds es
   3158	538B  2E: C6 06	010Cr 00		     mov  _Result,0
   3159	5391  8B 46 06				     mov  ax,Mode
   3160	5394  50				     push ax
   3161	5395  0E E8 FFB8			     call GetModeInfo
   3162	5399  2E: A1 0004r			     mov  ax,WinGran
   3163	539D  3D 0041				     cmp  ax,0041h		      ;WinGran>64
   3164	53A0  72 03				     jc	  VINxtChk		      ;нет
   3165	53A2  EB 0C 90				     jmp  VISomeErr1		      ;да
   3166	53A5  3D 0004		     VINxtChk:	     cmp  ax,0004h		      ;WinGran<4
   3167	53A8  72 06				     jc	  VISomeErr1		      ;да
   3168	53AA  B8 0040				     mov  ax,64
   3169	53AD  EB 14 90				     jmp  VIOk2			      ;нет
   3170	53B0			     VISomeErr1:
   3171						     ErrorI 2			      ;ОШИБКА!
1  3172	53B0  1E				     push ds
1  3173	53B1  0E				     push cs
1  3174	53B2  1F				     pop  ds
1  3175	53B3  BA 0C1Fr				     mov  dx,offset Error2
1  3176	53B6  E8 FF66				     call Error
1  3177	53B9  1F				     pop  ds
1  3178	53BA  2E: C6 06	010Cr 02		     mov  _Result,2
   3179	53C0  E9 00F4				     jmp  VIExit
   3180	53C3  C1 E0 0A		     VIOk2:	     shl  ax,10			      ;умножим на 1024
   3181	53C6  2E: A3 010Dr			     mov  _GranSize,ax		      ;и запомним в _GranSize
   3182	53CA  33 D2				     xor  dx,dx
   3183	53CC  2E: A1 0006r			     mov  ax,cs:WinSize
   3184	53D0  3D 0040				     cmp  ax,40h
   3185	53D3  75 DB				     jnz  VISomeErr1
   3186	53D5  2E: F7 36	0004r			     div  cs:WinGran
   3187	53DA  2E: A3 010Ar			     mov  GranPerBank,ax
   3188	53DE  2E: C7 06	0004r 0040		     mov  word ptr cs:WinGran,64
   3189	53E5  2E: C7 06	0BC7r 0000		     mov  _VMinX,0
   3190	53EC  2E: C7 06	0BC9r 0000		     mov  _VMinY,0
   3191	53F3  2E: A1 0012r			     mov  ax,ScreenX
   3192	53F7  48				     dec  ax
Turbo Assembler	 Version 3.2	    03/09/00 02:20:48	    Page 57
my.asm



   3193	53F8  2E: A3 0BCBr			     mov  _VMaxX,ax
   3194	53FC  2E: A1 0014r			     mov  ax,ScreenY
   3195	5400  48				     dec  ax
   3196	5401  2E: A3 0BCDr			     mov  _VMaxY,ax		      ;задали границы
   3197	5405  B8 4F02				     mov  ax,04F02h
   3198	5408  8B 5E 06				     mov  bx,Mode
   3199	540B  CD 10				     int  10h			      ;пытаемся	перейти	в режим
   3200	540D  3D 004F				     cmp  ax,0004Fh
   3201	5410  74 13				     jz	  VIOk0			      ;удалось
   3202						     ErrorI 1			      ;не удалось
1  3203	5412  1E				     push ds
1  3204	5413  0E				     push cs
1  3205	5414  1F				     pop  ds
1  3206	5415  BA 0BEAr				     mov  dx,offset Error1
1  3207	5418  E8 FF04				     call Error
1  3208	541B  1F				     pop  ds
1  3209	541C  2E: C6 06	010Cr 01		     mov  _Result,1
   3210	5422  E9 0092				     jmp  VIExit
   3211	5425  B8 4F05		     VIOk0:	     mov  ax,04F05h
   3212	5428  33 DB				     xor  bx,bx
   3213	542A  33 D2				     xor  dx,dx
   3214	542C  CD 10				     int  10h			      ;устанавливаем 0-й Gran
   3215	542E  2E: C7 06	010Fr 0000		     mov  _GranUnit,0
   3216	5435  3D 004F				     cmp  ax,0004Fh		      ;а вдруг не получилось?
   3217	5438  74 13				     jz	  VIOk1			      ;все в порядке
   3218						     ErrorI 1			      ;ОШИБКА!
1  3219	543A  1E				     push ds
1  3220	543B  0E				     push cs
1  3221	543C  1F				     pop  ds
1  3222	543D  BA 0BEAr				     mov  dx,offset Error1
1  3223	5440  E8 FEDC				     call Error
1  3224	5443  1F				     pop  ds
1  3225	5444  2E: C6 06	010Cr 01		     mov  _Result,1
   3226	544A  EB 6B 90				     jmp  VIExit
   3227	544D  2E: 80 3E	001Br 04     VIOk1:	     cmp  MemModel,4		      ;та ли модель памяти?
   3228	5453  74 13				     jz	  VIOk3			      ;да
   3229						     ErrorI 2			      ;нет
1  3230	5455  1E				     push ds
1  3231	5456  0E				     push cs
1  3232	5457  1F				     pop  ds
1  3233	5458  BA 0C1Fr				     mov  dx,offset Error2
1  3234	545B  E8 FEC1				     call Error
1  3235	545E  1F				     pop  ds
1  3236	545F  2E: C6 06	010Cr 02		     mov  _Result,2
   3237	5465  EB 50 90				     jmp  VIExit
   3238	5468  B8 1017		     VIOk3:	     mov  ax,1017h
   3239	546B  33 DB				     xor  bx,bx
   3240	546D  B9 0100				     mov  cx,256
   3241	5470  0E				     push cs
   3242	5471  07				     pop  es
   3243	5472  BA 08C6r				     mov  dx,offset _OldPalette
   3244	5475  CD 10				     int  10h			      ;возьмем старую палитру
   3245	5477  B8 1012				     mov  ax,1012h
   3246	547A  33 DB				     xor  bx,bx
   3247	547C  B9 0100				     mov  cx,256
   3248	547F  0E				     push cs
   3249	5480  07				     pop  es
Turbo Assembler	 Version 3.2	    03/09/00 02:20:48	    Page 58
my.asm



   3250	5481  BA 500Fr				     mov  dx,offset StandardPalette
   3251	5484  CD 10				     int  10h			      ;установим стандартную палитру
   3252	5486  2E: C6 06	0111r 0F		     mov  byte ptr _Color,15
   3253	548C  2E: C6 06	0BC6r 00		     mov  byte ptr _WriteMode,0
   3254	5492  2E: A1 0014r			     mov  ax,cs:ScreenY
   3255	5496  2E: 8B 1E	0012r			     mov  bx,cs:ScreenX
   3256	549B  F7 E3				     mul  bx
   3257	549D  42				     inc  dx
   3258	549E  2E: 89 16	0FCBr			     mov  cs:SecondPageBank,dx
   3259	54A3  33 C0				     xor  ax,ax
   3260	54A5  F7 F3				     div  bx
   3261	54A7  2E: A3 0FD3r			     mov  cs:CurYPage,ax
   3262						     ;inc  dx  ;???
   3263	54AB  2E: 89 16	0FD1r			     mov  cs:CurXPage,dx
   3264	54B0  2E: C7 06	0FCDr 0000		     mov  word ptr cs:BankAdder,0
   3265	54B7  07 1F 5A 59 5B 58	5D   VIExit:	     pop  es ds	dx cx bx ax bp
   3266	54BE  CA 0002				     ret  ArgSize
   3267	54C1			     VESAInit	     endp
   3268
   3269	54C1			     GraphResult     proc far
   3270	54C1  2E: A0 010Cr			     mov  al,_Result
   3271	54C5  CB				     ret
   3272	54C6			     GraphResult     endp
   3273
   3274	54C6			     VESADone	     proc far
   3275	54C6  B8 0003				     mov  ax,00003h
   3276	54C9  CD 10				     int  10h
   3277	54CB  CB				     ret
   3278	54CC			     VESADone	     endp
   3279
   3280
   3281
   3282	54CC			     SetDACRegister  proc far
   3283	      =0008				     arg _Blue:byte,_Green:byte,_Red:byte,Reg:word=ArgSize
   3284	54CC  55				     push bp
   3285	54CD  8B EC				     mov  bp,sp
   3286	54CF  B8 1010				     mov  ax,1010h
   3287	54D2  8B 5E 0C				     mov  bx,Reg
   3288	54D5  8A 76 0A				     mov  dh,_Red
   3289	54D8  8A 6E 08				     mov  ch,_Green
   3290	54DB  8A 4E 06				     mov  cl,_Blue
   3291	54DE  CD 10				     int  10h
   3292	54E0  5D				     pop  bp
   3293	54E1  CA 0008				     ret  ArgSize
   3294	54E4			     SetDACRegister  endp
   3295
   3296	54E4			     ReadDACRegister proc far
   3297	      =000E				     arg _oB,_sB,_oG,_sG,_oR,_sR,Reg:word=ArgSize
   3298	54E4  55				     push bp
   3299	54E5  8B EC				     mov  bp,sp
   3300	54E7  06				     push es
   3301	54E8  B8 1015				     mov  ax,1015h
   3302	54EB  8B 5E 12				     mov  bx,Reg
   3303	54EE  CD 10				     int  10h
   3304	54F0  8E 46 10				     mov  es,_sR
   3305	54F3  8B 7E 0E				     mov  di,_oR
   3306	54F6  26: 88 35				     mov  es:[di],dh
Turbo Assembler	 Version 3.2	    03/09/00 02:20:48	    Page 59
my.asm



   3307	54F9  8E 46 0C				     mov  es,_sG
   3308	54FC  8B 7E 0A				     mov  di,_oG
   3309	54FF  26: 88 2D				     mov  es:[di],ch
   3310	5502  8E 46 08				     mov  es,_sB
   3311	5505  8B 7E 06				     mov  di,_oB
   3312	5508  26: 88 0D				     mov  es:[di],cl
   3313	550B  07 5D				     pop  es bp
   3314	550D  CA 000E				     ret  ArgSize
   3315	5510			     ReadDACRegister endp
   3316
   3317	5510			     SetDACBlock     proc far
   3318	      =0008				     arg StoreOfs,StoreSeg,Count,Start:word=ArgSize
   3319	5510  55				     push bp
   3320	5511  8B EC				     mov  bp,sp
   3321	5513  06				     push es
   3322	5514  B8 1012				     mov  ax,1012h
   3323	5517  8B 5E 0C				     mov  bx,Start
   3324	551A  8B 4E 0A				     mov  cx,Count
   3325	551D  8E 46 08				     mov  es,StoreSeg
   3326	5520  8B 56 06				     mov  dx,StoreOfs
   3327	5523  CD 10				     int  10h
   3328	5525  07 5D				     pop  es bp
   3329	5527  CA 0008				     ret  ArgSize
   3330	552A			     SetDACBlock     endp
   3331
   3332
   3333	552A			     ReadDACBlock    proc far
   3334	      =0008				     arg StoreOfs,StoreSeg,Count,Start:word=ArgSize
   3335	552A  55				     push bp
   3336	552B  8B EC				     mov  bp,sp
   3337	552D  06				     push es
   3338	552E  B8 1017				     mov  ax,1017h
   3339	5531  8B 5E 0C				     mov  bx,Start
   3340	5534  8B 4E 0A				     mov  cx,Count
   3341	5537  8E 46 08				     mov  es,StoreSeg
   3342	553A  8B 56 06				     mov  dx,StoreOfs
   3343	553D  CD 10				     int  10h
   3344	553F  07 5D				     pop  es bp
   3345	5541  CA 0008				     ret  ArgSize
   3346	5544			     ReadDACBlock    endp
   3347
   3348
   3349	5544			     Int08Handler    proc
   3350	5544  9C				     pushf
   3351	5545  9A				     db	  9Ah
   3352	5546  ????		     _Old08Ofs:	     dw	  ?
   3353	5548  ????		     _Old08Seg:	     dw	  ?
   3354	554A  50 51 52				     push ax cx	dx
   3355	554D  2E: FF 06	0BD4r			     inc  word ptr _MouseIdle	      ;увеличить счетчик простоя
   3356	5552  2E: 80 3E	052Cr 00		     cmp  _MaxFrame,0
   3357	5558  75 03				     jnz  I8HCont1
   3358	555A  E9 0090				     jmp  I8HExit
   3359	555D  2E: 8A 0E	053Br	     I8HCont1:	     mov  cl,_CurDelay
   3360	5562  2E: 3A 0E	053Ar			     cmp  cl,_MouseDelay	      ;надо ли следующий кадр?
   3361	5567  74 08				     jz	  I8HNextFrame		      ;да
   3362	5569  2E: FE 06	053Br			     inc  _CurDelay		      ;подождем	еще
   3363	556E  EB 7D 90				     jmp  I8HExit		      ;и выходим
Turbo Assembler	 Version 3.2	    03/09/00 02:20:48	    Page 60
my.asm



   3364	5571  2E: C6 06	053Br 00     I8HNextFrame:   mov  _CurDelay,0		      ;сбросим счетчик
   3365	5577  2E: FE 06	052Br			     inc  _CurFrame		      ;следующий кадр
   3366	557C  2E: 8A 0E	052Cr			     mov  cl,_MaxFrame
   3367	5581  2E: 38 0E	052Br			     cmp  _CurFrame,cl
   3368	5586  76 09				     jbe  I8HNoZeroing		      ;не надо обнулять
   3369	5588  2E: C6 06	052Br 00		     mov  _CurFrame,0		      ;иначе обнулим
   3370	558E  EB 1F 90				     jmp  I8HNewCycle		      ;и переинициализируем
   3371	5591			     I8HNoZeroing:				      ;иначе - следующий кадр
   3372	5591  2E: 8B 16	0127r			     mov  dx,word ptr cs:[_CurAnimPtr+2]
   3373	5596  2E: 8B 0E	0125r			     mov  cx,word ptr cs:[_CurAnimPtr]
   3374	559B  81 C1 0400			     add  cx,1024
   3375	559F  83 D2 00				     adc  dx,0
   3376	55A2  2E: 89 16	0127r			     mov  word ptr cs:[_CurAnimPtr+2],dx
   3377	55A7  2E: 89 0E	0125r			     mov  word ptr cs:[_CurAnimPtr],cx
   3378	55AC  EB 15 90				     jmp  I8HCont
   3379	55AF  2E: 8B 16	011Ar	     I8HNewCycle:    mov  dx,word ptr cs:[_MouseAnimPtr+2]
   3380	55B4  2E: 8B 0E	0118r			     mov  cx,word ptr cs:[_MouseAnimPtr]
   3381	55B9  2E: 89 16	0127r			     mov  word ptr cs:[_CurAnimPtr+2],dx
   3382	55BE  2E: 89 0E	0125r			     mov  word ptr cs:[_CurAnimPtr],cx
   3383	55C3  2E: 80 3E	011Cr 00     I8HCont:	     cmp  _MouseVisible,0
   3384	55C9  7E 22				     jle  I8HExit
   3385	55CB  2E: 80 3E	05C0r 01		     cmp  byte ptr _0CIdle,1
   3386	55D1  75 1A				     jnz  I8HExit
   3387	55D3  2E: C6 06	05C1r 00		     mov  byte ptr _08Idle,0
   3388	55D9  BA 03DA				     mov  dx,03DAh
   3389	55DC  EC		     I8Wait:	     in	  al,dx
   3390	55DD  A8 08				     test al,00001000b
   3391	55DF  74 FB				     jz	  I8Wait
   3392	55E1  E8 AA1C				     call DrawMouseSwap
**Error** my.asm(427) Undefined	symbol:	DRAWMOUSESWAP
   3393	55E4  E8 AA19				     call DrawMouseCursor
**Error** my.asm(428) Undefined	symbol:	DRAWMOUSECURSOR
   3394	55E7  2E: C6 06	05C1r 01		     mov  byte ptr _08Idle,1
   3395	55ED  5A 59 58		     I8HExit:	     pop  dx cx	ax
   3396	55F0  CF				     iret
   3397	55F1			     Int08Handler    endp
   3398
   3399	55F1			     Int0CHandler    proc
   3400				     ;		      pushf
   3401				     ;		      db   9Ah			       ;вызвали	старый обработчик
   3402				     ;_Old0COfs:      dw   ?
   3403				     ;_Old0CSeg:      dw   ?
   3404	55F1  50 53 51 52 55 56	57+		     push ax bx	cx dx bp si di ds es
   3405	      1E 06
   3406	55FA  2E: 80 3E	011Cr 00		     cmp  byte ptr _MouseVisible,0    ;если мышь не видна
   3407	5600  7F 0D				     jg	  ICHStillHere
   3408	5602  2E: 89 0E	011Dr			     mov  cs:_MouseX,cx		      ;	сохраняем положение !!!
   3409	5607  2E: 89 16	011Fr			     mov  cs:_MouseY,dx		      ;	БЛИН, ДИМА !!!
   3410	560C  E9 0102				     jmp  ICHOut		      ;то выходим
   3411	560F  2E: C7 06	0BD4r 0000   ICHStillHere:   mov  word ptr _MouseIdle,0	      ;мышь передвинута
   3412				     ;		      mov  ax,3
   3413				     ;		      int  33h
   3414	5616  2E: 3B 0E	011Dr			     cmp  cx,_MouseX
   3415	561B  75 0A				     jnz  ICHMMoved
   3416	561D  2E: 3B 16	011Fr			     cmp  dx,_MouseY
   3417	5622  75 03				     jnz  ICHMMoved
   3418	5624  E9 00EA				     jmp  ICHOut
Turbo Assembler	 Version 3.2	    03/09/00 02:20:48	    Page 61
my.asm



   3419	5627  2E: 89 0E	0121r	     ICHMMoved:	     mov  word ptr _NewMouseX,cx
   3420	562C  2E: 89 16	0123r			     mov  word ptr _NewMouseY,dx
   3421	5631  2E: 80 3E	05C1r 01		     cmp  byte ptr _08Idle,1
   3422	5637  74 03				     jz	  ICH8Idle
   3423	5639  E9 00D5				     jmp  ICHOut
   3424	563C  2E: C6 06	05C0r 00     ICH8Idle:	     mov  byte ptr _0CIdle,0	      ;устанавливаем блокировку
   3425	5642  E8 A9BB				     call DrawMouseSwap		      ;стираем курсор
**Error** my.asm(459) Undefined	symbol:	DRAWMOUSESWAP
   3426	5645  2E: 8B 0E	0121r			     mov  cx,_NewMouseX
   3427	564A  2E: 8B 16	0123r			     mov  dx,_NewMouseY
   3428	564F  2E: 89 0E	011Dr			     mov  word ptr _MouseX,cx	      ;и запомним
   3429	5654  2E: 89 16	011Fr			     mov  word ptr _MouseY,dx	      ;их
   3430	5659  BE 05C2r				     mov  si,offset _Areas	      ;выберем область
   3431	565C  2E: A1 011Dr			     mov  ax,_MouseX
   3432	5660  2E: 8B 1E	011Fr			     mov  bx,_MouseY
   3433	5665  2E: 3B 04		     ICHSelStart:    cmp  ax,cs:[si]
   3434	5668  72 1D				     jc	  ICHSelNext
   3435	566A  2E: 3B 44	04			     cmp  ax,cs:[si+4]
   3436	566E  77 17				     ja	  ICHSelNext
   3437	5670  2E: 3B 5C	02			     cmp  bx,cs:[si+2]
   3438	5674  72 11				     jc	  ICHSelNext
   3439	5676  2E: 3B 5C	06			     cmp  bx,cs:[si+6]
   3440	567A  77 0B				     ja	  ICHSelNext
   3441	567C  2E: 8E 44	0A			     mov  es,cs:[si+10]
   3442	5680  2E: 8B 7C	08			     mov  di,cs:[si+8]
   3443	5684  EB 06 90				     jmp  ICHSelDone
   3444	5687  83 C6 0C		     ICHSelNext:     add  si,12
   3445	568A  EB D9				     jmp  ICHSelStart
   3446										      ;выбрали в es:[di]
   3447	568C  8C C2		     ICHSelDone:     mov  dx,es
   3448	568E  83 C7 04				     add  di,4			      ;пропустим NF, D,	HSX, HSY
   3449	5691  83 D2 00				     adc  dx,0
   3450	5694  2E: 3B 16	011Ar			     cmp  dx,word ptr cs:[_MouseAnimPtr+2]
   3451	5699  75 0A				     jnz  ICHSelCursor
   3452	569B  2E: 3B 3E	0118r			     cmp  di,word ptr cs:[_MouseAnimPtr]
   3453	56A0  75 03				     jnz  ICHSelCursor
   3454	56A2  EB 64 90				     jmp  ICHDraw		      ;если курсор не сменился,	рисуем
   3455	56A5  52		     ICHSelCursor:   push dx
   3456	56A6  8C C2				     mov  dx,es
   3457	56A8  83 EF 04				     sub  di,4			      ;вернемся	в начало
   3458	56AB  83 DA 00				     sbb  dx,0
   3459	56AE  8E C2				     mov  es,dx
   3460	56B0  5A				     pop  dx
   3461	56B1  26: 8A 05				     mov  al,es:[di]
   3462	56B4  2E: A2 052Cr			     mov  _MaxFrame,al		      ;установим NF
   3463	56B8  2E: C6 06	052Br 00		     mov  _CurFrame,0
   3464	56BE  26: 8A 45	01			     mov  al,es:[di+1]
   3465	56C2  2E: A2 053Ar			     mov  _MouseDelay,al	      ;установим D
   3466	56C6  2E: C6 06	053Br 00		     mov  _CurDelay,0
   3467	56CC  26: 8A 45	02			     mov  al,es:[di+2]
   3468	56D0  2E: A2 0529r			     mov  _HotSpotX,al		      ;установим HSX
   3469	56D4  26: 8A 45	03			     mov  al,es:[di+3]
   3470	56D8  2E: A2 052Ar			     mov  _HotSpotY,al		      ;установим HSY
   3471	56DC  2E: 8C 06	011Ar			     mov  word ptr cs:[_MouseAnimPtr+2],es
   3472	56E1  2E: 89 3E	0118r			     mov  word ptr cs:[_MouseAnimPtr],di
   3473	56E6  2E: 83 06	0118r 04		     add  word ptr cs:[_MouseAnimPtr],4
   3474	56EC  2E: 83 16	011Ar 00		     adc  word ptr cs:[_MouseAnimPtr+2],0
Turbo Assembler	 Version 3.2	    03/09/00 02:20:48	    Page 62
my.asm



   3475	56F2  2E: 8C 06	0127r			     mov  word ptr cs:[_CurAnimPtr+2],es
   3476	56F7  2E: 89 3E	0125r			     mov  word ptr cs:[_CurAnimPtr],di
   3477	56FC  2E: 83 06	0125r 04		     add  word ptr cs:[_CurAnimPtr],4
   3478	5702  2E: 83 16	0127r 00		     adc  word ptr cs:[_CurAnimPtr+2],0
   3479	5708  E8 A8F5		     ICHDraw:	     call DrawMouseCursor
**Error** my.asm(513) Undefined	symbol:	DRAWMOUSECURSOR
   3480	570B  2E: C6 06	05C0r 01		     mov  byte ptr _0CIdle,1		       ;снимаем	блокировку
   3481	5711  07 1F 5F 5E 5D 5A	59+  ICHOut:	     pop  es ds	di si bp dx cx bx ax
   3482	      5B 58
   3483	571A  CB				     retf
   3484	571B			     Int0CHandler    endp
   3485
   3486
   3487	571B			     Int33Handler    proc
   3488	571B  3D 0004				     cmp  ax,04h		      ;move pointer shape
   3489	571E  74 5D				     jz	  I33Exit
   3490	5720  3D 0009				     cmp  ax,09h		      ;set graph pointer shape
   3491	5723  74 58				     jz	  I33Exit
   3492	5725  3D 000A				     cmp  ax,0Ah		      ;set text	pointer	mask
   3493	5728  74 53				     jz	  I33Exit
   3494	572A  3D 000D				     cmp  ax,0Dh		      ;enable lightpen emulation
   3495	572D  74 4E				     jz	  I33Exit
   3496	572F  3D 000E				     cmp  ax,0Eh		      ;disable lightpen	emulation
   3497	5732  74 49				     jz	  I33Exit
   3498	5734  3D 0010				     cmp  ax,10h		      ;set exclusion area
   3499	5737  74 44				     jz	  I33Exit
   3500	5739  3D 0016				     cmp  ax,16h		      ;save mouse status
   3501	573C  74 3F				     jz	  I33Exit
   3502	573E  3D 0017				     cmp  ax,17h		      ;restore mouse status
   3503	5741  74 3A				     jz	  I33Exit
   3504	5743  3D 001C				     cmp  ax,1Ch		      ;set mouse interrupt rate
   3505	5746  74 35				     jz	  I33Exit
   3506	5748  3D 001D				     cmp  ax,1Dh		      ;set display page
   3507	574B  74 30				     jz	  I33Exit
   3508	574D  3D 001E				     cmp  ax,1Eh		      ;query active display page
   3509	5750  74 2B				     jz	  I33Exit
   3510	5752  3D 001F				     cmp  ax,1Fh		      ;deactivate mouse	driver
   3511	5755  74 26				     jz	  I33Exit
   3512	5757  3D 0020				     cmp  ax,20h		      ;activate	mouse driver
   3513	575A  74 21				     jz	  I33Exit
   3514	575C  3D 0021				     cmp  ax,21h		      ;reset mouse driver
   3515	575F  74 1C				     jz	  I33Exit
   3516
   3517	5761  3D 0001				     cmp  ax,1
   3518	5764  75 06				     jnz  I33Chk02
   3519	5766  E8 A897				     call ShowMouse
**Error** my.asm(552) Undefined	symbol:	SHOWMOUSE
   3520	5769  EB 12 90				     jmp  I33Exit
   3521	576C  3D 0002		     I33Chk02:	     cmp  ax,2
   3522	576F  75 06				     jnz  I33Old
   3523	5771  E8 A88C		     I33AX02:	     call HideMouse
**Error** my.asm(556) Undefined	symbol:	HIDEMOUSE
   3524	5774  EB 07 90				     jmp  I33Exit
   3525	5777  9C		     I33Old:	     pushf
   3526	5778  9A				     db	  9Ah			      ;вызвали старый обработчик
   3527	5779  ????		     _Old33Ofs:	     dw	  ?
   3528	577B  ????		     _Old33Seg:	     dw	  ?
Turbo Assembler	 Version 3.2	    03/09/00 02:20:48	    Page 63
my.asm



   3529	577D  CF		     I33Exit:	     iret
   3530	577E			     Int33Handler    endp
   3531
   3532	577E			     _VXMouseInit     proc far
   3533	577E  50 53 51 52 57 1E	06		     push ax bx	cx dx di ds es
   3534	5785  B8 0000				     mov  ax,0
   3535	5788  CD 33				     int  33h
   3536	578A  3D FFFF				     cmp  ax,0FFFFh
   3537	578D  74 13				     jz	  VXMIOK0
   3538						     ErrorI 201
1  3539	578F  1E				     push ds
1  3540	5790  0E				     push cs
1  3541	5791  1F				     pop  ds
1  3542	5792  BA 0C4Er				     mov  dx,offset Error201
1  3543	5795  E8 FB87				     call Error
1  3544	5798  1F				     pop  ds
1  3545	5799  2E: C6 06	010Cr C9		     mov  _Result,201
   3546	579F  E9 00E5				     jmp  VXMIExit
   3547	57A2  2E: C7 06	08C2r	  +  VXMIOK0:	     mov  _LastArea,offset _Areas
   3548	      05C2r
   3549	57A9  2E: 8B 3E	08C2r			     mov  di,_LastArea
   3550	57AE  2E: C7 05	0000			     mov  word ptr cs:[di],0
   3551	57B3  2E: C7 45	02 0000			     mov  word ptr cs:[di+2],0
   3552	57B9  2E: A1 0012r			     mov  ax,ScreenX
   3553	57BD  48				     dec  ax
   3554	57BE  2E: 89 45	04			     mov  word ptr cs:[di+4],ax
   3555	57C2  2E: A1 0014r			     mov  ax,ScreenY
   3556	57C6  48				     dec  ax
   3557	57C7  2E: 89 45	06			     mov  word ptr cs:[di+6],ax
   3558	57CB  2E: C7 45	08 0FDFr		     mov  word ptr cs:[di+8],offset StandardCursor
   3559	57D1  2E: 8C 4D	0A			     mov  word ptr cs:[di+10],cs
   3560	57D5  2E: C6 06	08C4r 01		     mov  _NAreas,1
   3561	57DB  2E: C6 06	053Ar 00		     mov  _MouseDelay,0
   3562	57E1  2E: C6 06	05C0r 01		     mov  byte ptr _0CIdle,1
   3563	57E7  2E: C6 06	05C1r 01		     mov  byte ptr _08Idle,1
   3564	57ED  2E: C7 06	0BD4r 0000		     mov  word ptr _MouseIdle,0
   3565	57F4  2E: A1 0012r			     mov  ax,ScreenX
   3566	57F8  D1 E8				     shr  ax,1
   3567	57FA  8B C8				     mov  cx,ax
   3568	57FC  2E: A1 0014r			     mov  ax,ScreenY
   3569	5800  D1 E8				     shr  ax,1
   3570	5802  8B D0				     mov  dx,ax
   3571	5804  2E: 89 0E	011Dr			     mov  _MouseX,cx
   3572	5809  2E: 89 16	011Fr			     mov  _MouseY,dx
   3573	580E  B8 0004				     mov  ax,4
   3574	5811  CD 33				     int  33h			      ;курсор в	центр экрана
   3575	5813  2E: 8B 16	0012r			     mov  dx,ScreenX
   3576	5818  4A				     dec  dx
   3577	5819  B9 0000				     mov  cx,0
   3578	581C  B8 0007				     mov  ax,7
   3579	581F  CD 33				     int  33h			      ;установили MinX,	MaxX
   3580	5821  2E: 8B 16	0014r			     mov  dx,ScreenY
   3581	5826  4A				     dec  dx
   3582	5827  B9 0000				     mov  cx,0
   3583	582A  B8 0008				     mov  ax,8
   3584	582D  CD 33				     int  33h			      ;установили MinY,	MaxY
   3585	582F  2E: C6 06	052Cr 00		     mov  _MaxFrame,0
Turbo Assembler	 Version 3.2	    03/09/00 02:20:48	    Page 64
my.asm



   3586	5835  2E: C6 06	052Br 00		     mov  _CurFrame,0
   3587	583B  0E				     push cs
   3588	583C  07				     pop  es
   3589	583D  BF 0FDFr				     mov  di,offset StandardCursor
   3590	5840  E8 A7BD				     call ChangeCursor
**Error** my.asm(615) Undefined	symbol:	CHANGECURSOR
   3591	5843  B8 350C				     mov  ax,350Ch
   3592	5846  CD 21				     int  21h
   3593				     ;		      mov  word	ptr cs:[_Old0CSeg],es
   3594				     ;		      mov  word	ptr cs:[_Old0COfs],bx
   3595	5848  BA 55F1r				     mov  dx,offset Int0CHandler;ICHOut__;
   3596	584B  0E				     push cs
   3597	584C  07				     pop  es
   3598				     ; mouse routenues
   3599	584D  B8 000C				     mov  ax,0Ch
   3600	5850  B9 003F				     mov  cx,3Fh
   3601	5853  CD 33				     int  33h
   3602				     ;		      mov  ax,250Ch
   3603				     ;		      int  21h
   3604	5855  B8 3508				     mov  ax,3508h
   3605	5858  CD 21				     int  21h
   3606	585A  2E: 89 1E	5546r			     mov  word ptr cs:[_Old08Ofs],bx
   3607	585F  2E: 8C 06	5548r			     mov  word ptr cs:[_Old08Seg],es
   3608	5864  BA 5544r				     mov  dx,offset Int08Handler
   3609	5867  0E				     push cs
   3610	5868  1F				     pop  ds
   3611	5869  B8 2508				     mov  ax,2508h
   3612	586C  CD 21				     int  21h
   3613	586E  B8 3533				     mov  ax,3533h
   3614	5871  CD 21				     int  21h
   3615	5873  2E: 89 1E	5779r			     mov  word ptr cs:[_Old33Ofs],bx
   3616	5878  2E: 8C 06	577Br			     mov  word ptr cs:[_Old33Seg],es
   3617	587D  BA 571Br				     mov  dx,offset Int33Handler
   3618	5880  0E				     push cs
   3619	5881  1F				     pop  ds
   3620	5882  B8 2533				     mov  ax,2533h
   3621	5885  CD 21				     int  21h
   3622	5887  07 1F 5F 5A 59 5B	58   VXMIExit:	     pop  es ds	di dx cx bx ax
   3623	588E  CB				     retf
   3624	588F			     _VXMouseInit     endp
   3625
   3626	588F			     VXMouseDone     proc far
   3627	588F  50 52 1E				     push ax dx	ds
   3628	5892  2E: 80 3E	011Cr 00		     cmp  _MouseVisible,0
   3629	5898  7E 03				     jle  VXMDNoSwap
   3630	589A  E8 A763				     call DrawMouseSwap
**Error** my.asm(655) Undefined	symbol:	DRAWMOUSESWAP
   3631	589D  FA		     VXMDNoSwap:     cli
   3632				     ;		      mov  ds,word ptr cs:[_Old0CSeg]
   3633				     ;		      mov  dx,word ptr cs:[_Old0COfs]
   3634				     ;		      mov  ax,250Ch
   3635				     ;		      int  21h
   3636	589E  B8 000C				     mov  ax,0Ch
   3637	58A1  33 C9				     xor  cx,cx
   3638	58A3  CD 33				     int  33h
   3639	58A5  2E: 8E 1E	5548r			     mov  ds,word ptr cs:[_Old08Seg]
   3640	58AA  2E: 8B 16	5546r			     mov  dx,word ptr cs:[_Old08Ofs]
Turbo Assembler	 Version 3.2	    03/09/00 02:20:48	    Page 65
my.asm



   3641	58AF  B8 2508				     mov  ax,2508h
   3642	58B2  CD 21				     int  21h
   3643	58B4  2E: 8E 1E	577Br			     mov  ds,word ptr cs:[_Old33Seg]
   3644	58B9  2E: 8B 16	5779r			     mov  dx,word ptr cs:[_Old33Ofs]
   3645	58BE  B8 2533				     mov  ax,2533h
   3646	58C1  CD 21				     int  21h
   3647	58C3  1F 5A 58				     pop  ds dx	ax
   3648	58C6  FB				     sti
   3649	58C7  CB				     retf
   3650	58C8			     VXMouseDone     endp
   3651
   3652	58C8			     SetAnimSequence proc far
   3653	      =0004				     arg _oArr,_sArr:word=ArgSize
   3654	58C8  55				     push bp
   3655	58C9  8B EC				     mov  bp,sp
   3656	58CB  56 57 06				     push si di	es
   3657	58CE  8E 46 08				     mov  es,_sArr
   3658	58D1  8B 7E 06				     mov  di,_oArr
   3659	58D4  2E: 8B 36	08C2r			     mov  si,_LastArea
   3660	58D9  2E: 89 7C	08			     mov  cs:[si+8],di
   3661	58DD  2E: 8C 44	0A			     mov  cs:[si+10],es
   3662	58E1  E8 A71C				     call SelectArea
**Error** my.asm(687) Undefined	symbol:	SELECTAREA
   3663	58E4  07 5F 5E 5D			     pop  es di	si bp
   3664	58E8  CA 0004				     ret  ArgSize
   3665	58EB			     SetAnimSequence endp
   3666
   3667	58EB			     SetStdPalette   proc far
   3668	58EB  06				     push es
   3669	58EC  B8 1012				     mov  ax,1012h
   3670	58EF  33 DB				     xor  bx,bx
   3671	58F1  B9 0100				     mov  cx,256
   3672	58F4  0E				     push cs
   3673	58F5  07				     pop  es
   3674	58F6  BA 500Fr				     mov  dx,offset StandardPalette
   3675	58F9  CD 10				     int  10h
   3676	58FB  07				     pop  es
   3677	58FC  CB				     ret
   3678	58FD			     SetStdPalette   endp
   3679
   3680	58FD			     SetWriteMode    proc far
   3681	      =0002				     arg  NewMode:byte=ArgSize
   3682	58FD  55				     push bp
   3683	58FE  8B EC				     mov  bp,sp
   3684	5900  8A 46 06				     mov  al,NewMode
   3685	5903  2E: A2 0BC6r			     mov  _WriteMode,al
   3686	5907  5D				     pop  bp
   3687	5908  CA 0002				     ret  ArgSize
   3688	590B			     SetWriteMode    endp
   3689	590B			     code	     ends
   3690						     end
Turbo Assembler	 Version 3.2	    03/09/00 02:20:48	    Page 66
Symbol Table




Symbol Name			  Type	 Value

??DATE				  Text	 "03/09/00"
??FILENAME			  Text	 "my	  "
??TIME				  Text	 "02:20:48"
??VERSION			  Number 0314
@CPU				  Text	 0707H
@CURSEG				  Text	 CODE
@FILENAME			  Text	 MY
@WORDSIZE			  Text	 2
APAGE				  Byte	 CODE:0FD6
ARGSIZE				  Number 0002
ARROWDOWN			  Byte	 CODE:2FFF
ARROWLEFT			  Byte	 CODE:3807
ARROWRIGHT			  Byte	 CODE:3403
ARROWUP				  Byte	 CODE:2BFB
BACKGRPG1			  Word	 CODE:530F
BACKGRPG2			  Word	 CODE:5311
BACKGRPG3			  Word	 CODE:5313
BACKGRPG4			  Word	 CODE:5315
BACKGRPG5			  Word	 CODE:5317
BACKGRPG6			  Word	 CODE:5319
BANKADDER			  Word	 CODE:0FCD
BANKS				  Byte	 CODE:001A
BANKSIZE			  Byte	 CODE:001C
BITIMAGE			  Word	 CODE:0DA1
BITSPERPIXEL			  Byte	 CODE:0019
BYTEINLINE			  Word	 CODE:0010
CHARHEIGHT			  Byte	 CODE:0017
CHARWIDTH			  Byte	 CODE:0016
CHRONOCUR			  Byte	 CODE:27F7
CLEARSW				  Byte	 CODE:0FCA
COUNT				  Number [BP+000A]
CURO				  Word	 CODE:0DAD
CUROFFS				  Word	 CODE:0DA9
CURP				  Word	 CODE:0DAB
CURPAGE				  Word	 CODE:0DA7
CURXC				  Word	 CODE:0FB7
CURXPAGE			  Word	 CODE:0FD1
CURXSIZE			  Word	 CODE:0FBB
CURYC				  Word	 CODE:0FB9
CURYPAGE			  Word	 CODE:0FD3
CURYSIZE			  Word	 CODE:0FBD
EMSFRAME			  Word	 CODE:0BE8
EMSP1				  Word	 CODE:0FD7
EMSP2				  Word	 CODE:0FD9
EMSP3				  Word	 CODE:0FDB
EMSP4				  Word	 CODE:0FDD
EMSTMP				  Word	 CODE:0BE6
ERROR				  Near	 CODE:531F
ERROR1				  Byte	 CODE:0BEA
ERROR2				  Byte	 CODE:0C1F
ERROR201			  Byte	 CODE:0C4E
FIRSTELEM			  Word	 CODE:0DA5
GETMODEINFO			  Far	 CODE:5351
GLASES1				  Word	 CODE:0D81
Turbo Assembler	 Version 3.2	    03/09/00 02:20:48	    Page 67
Symbol Table



GLASES2				  Word	 CODE:0D83
GMIOK				  Near	 CODE:537D
GRANPERBANK			  Word	 CODE:010A
GRAPHRESULT			  Far	 CODE:54C1
HAND				  Byte	 CODE:1BEB
I33AX02				  Near	 CODE:5771
I33CHK02			  Near	 CODE:576C
I33EXIT				  Near	 CODE:577D
I33OLD				  Near	 CODE:5777
I8HCONT				  Near	 CODE:55C3
I8HCONT1			  Near	 CODE:555D
I8HEXIT				  Near	 CODE:55ED
I8HNEWCYCLE			  Near	 CODE:55AF
I8HNEXTFRAME			  Near	 CODE:5571
I8HNOZEROING			  Near	 CODE:5591
I8WAIT				  Near	 CODE:55DC
ICH8IDLE			  Near	 CODE:563C
ICHDRAW				  Near	 CODE:5708
ICHMMOVED			  Near	 CODE:5627
ICHOUT				  Near	 CODE:5711
ICHSELCURSOR			  Near	 CODE:56A5
ICHSELDONE			  Near	 CODE:568C
ICHSELNEXT			  Near	 CODE:5687
ICHSELSTART			  Near	 CODE:5665
ICHSTILLHERE			  Near	 CODE:560F
IMAGEPAGES			  Byte	 CODE:001D
INT08HANDLER			  Near	 CODE:5544
INT0CHANDLER			  Near	 CODE:55F1
INT33HANDLER			  Near	 CODE:571B
LIST				  Word	 CODE:0DA3
MAPBANK				  Word	 CODE:0D8F
MAPSTART			  Word	 CODE:0D8D
MASKADD				  Word	 CODE:0FC3
MASKOLD				  Byte	 CODE:0FC5
MCURX				  Word	 CODE:0531
MCURY				  Word	 CODE:0533
MEMMODEL			  Byte	 CODE:001B
MEMPLANES			  Byte	 CODE:0018
MODE				  Number [BP+0006]
MODEATTRS			  Word	 CODE:0000
MOUSEBANKADDER			  Word	 CODE:0FCF
MXADD				  Word	 CODE:0537
MXCOPY				  Word	 CODE:0535
MYCURSOR			  Byte	 CODE:13E3
MYCURSOR2			  Byte	 CODE:17E7
NEWMODE				  Number [BP+0006]
NOSCROLL			  Byte	 CODE:3C0B
OLDBP				  Word	 CODE:0FB5
OLDDI				  Word	 CODE:0FB3
OLDDS				  Word	 CODE:0FAF
OLDSI				  Word	 CODE:0FB1
READDACBLOCK			  Far	 CODE:552A
READDACREGISTER			  Far	 CODE:54E4
REG				  Number [BP+0012]
REPAIR				  Byte	 CODE:1FEF
RESTOFBUFFER			  Byte	 CODE:001E
SCREENX				  Word	 CODE:0012
Turbo Assembler	 Version 3.2	    03/09/00 02:20:48	    Page 68
Symbol Table



SCREENY				  Word	 CODE:0014
SECONDPAGEBANK			  Word	 CODE:0FCB
SETANIMSEQUENCE			  Far	 CODE:58C8
SETDACBLOCK			  Far	 CODE:5510
SETDACREGISTER			  Far	 CODE:54CC
SETSTDPALETTE			  Far	 CODE:58EB
SETWRITEMODE			  Far	 CODE:58FD
SGNOSWITCH			  Near	 CODE:5350
SHADOWCOLORS			  Byte	 CODE:0C81
SOLD				  Byte	 CODE:23F3
SPRTABLE			  Word	 CODE:0DAF
STANDARDCURSOR			  Byte	 CODE:0FDF
STANDARDFONT			  Byte	 CODE:400F
STANDARDPALETTE			  Byte	 CODE:500F
START				  Number [BP+000C]
STARTSEGA			  Word	 CODE:0008
STARTSEGB			  Word	 CODE:000A
STOREOFS			  Number [BP+0006]
STORESEG			  Number [BP+0008]
SWITCHGRAN			  Near	 CODE:5329
TEXTHIGH			  Word	 CODE:0D8B
TEXTLENG			  Word	 CODE:0D89
TEXTURE				  Dword	 CODE:0D85
TMP1				  Word	 CODE:531B
TMP2				  Word	 CODE:531D
TMPX				  Word	 CODE:0FC6
TMPY				  Word	 CODE:0FC8
VESADONE			  Far	 CODE:54C6
VESAINIT			  Far	 CODE:5382
VIEXIT				  Near	 CODE:54B7
VINXTCHK			  Near	 CODE:53A5
VIOK0				  Near	 CODE:5425
VIOK1				  Near	 CODE:544D
VIOK2				  Near	 CODE:53C3
VIOK3				  Near	 CODE:5468
VISOMEERR1			  Near	 CODE:53B0
VPAGE				  Byte	 CODE:0FD5
VXMDNOSWAP			  Near	 CODE:589D
VXMIEXIT			  Near	 CODE:5887
VXMIOK0				  Near	 CODE:57A2
VXMOUSEDONE			  Far	 CODE:588F
WINAATTRS			  Byte	 CODE:0002
WINBATTRS			  Byte	 CODE:0003
WINGRAN				  Word	 CODE:0004
WINSIZE				  Word	 CODE:0006
WPOSPTR				  Dword	 CODE:000C
XADD_				  Word	 CODE:0FBF
XDOP				  Word	 CODE:0D9F
XMAP				  Word	 CODE:0D97
XSCRADD				  Word	 CODE:0FC1
XSIZEMAP			  Word	 CODE:0D9B
XWINSIZE			  Word	 CODE:0D91
YMAP				  Word	 CODE:0D99
YSIZEMAP			  Word	 CODE:0D9D
YWINSIZE			  Word	 CODE:0D93
YWINSIZE_			  Word	 CODE:0D95
_08IDLE				  Byte	 CODE:05C1
Turbo Assembler	 Version 3.2	    03/09/00 02:20:48	    Page 69
Symbol Table



_0CIDLE				  Byte	 CODE:05C0
_AREAS				  Word	 CODE:05C2
_BLUE				  Number [BP+0006]
_COLOR				  Byte	 CODE:0111
_COMMONCURSOR			  Dword	 CODE:053C
_CTRLBYTE			  Byte	 CODE:0539
_CURANIMPTR			  Dword	 CODE:0125
_CURDELAY			  Byte	 CODE:053B
_CURFRAME			  Byte	 CODE:052B
_CURX				  Word	 CODE:0114
_CURY				  Word	 CODE:0116
_DELTAX				  Byte	 CODE:052D
_DELTAY				  Byte	 CODE:052E
_EMSFRAME			  Dword	 CODE:0BE2
_EMSFREE			  Dword	 CODE:0BDA
_EMSGET				  Dword	 CODE:0BD6
_EMSMAP				  Dword	 CODE:0BDE
_GRANSIZE			  Word	 CODE:010D
_GRANUNIT			  Word	 CODE:010F
_GREEN				  Number [BP+0008]
_HOTSPOTX			  Byte	 CODE:0529
_HOTSPOTY			  Byte	 CODE:052A
_LASTAREA			  Word	 CODE:08C2
_LDX				  Word	 CODE:0BCF
_LDXBELOW0			  Byte	 CODE:0BD3
_LDY				  Word	 CODE:0BD1
_MAXFRAME			  Byte	 CODE:052C
_MOUSEANIMPTR			  Dword	 CODE:0118
_MOUSEDELAY			  Byte	 CODE:053A
_MOUSEIDLE			  Word	 CODE:0BD4
_MOUSESWAP			  Byte	 CODE:0129
_MOUSEVISIBLE			  Byte	 CODE:011C
_MOUSEX				  Word	 CODE:011D
_MOUSEY				  Word	 CODE:011F
_NAREAS				  Byte	 CODE:08C4
_NEWMOUSEX			  Word	 CODE:0121
_NEWMOUSEY			  Word	 CODE:0123
_OARR				  Number [BP+0006]
_OB				  Number [BP+0006]
_OG				  Number [BP+000A]
_OLD08OFS			  Near	 CODE:5546
_OLD08SEG			  Near	 CODE:5548
_OLD33OFS			  Near	 CODE:5779
_OLD33SEG			  Near	 CODE:577B
_OLDPALETTE			  Byte	 CODE:08C6
_OR				  Number [BP+000E]
_PROTTMP			  Byte	 CODE:08C5
_RED				  Number [BP+000A]
_RESULT				  Byte	 CODE:010C
_SARR				  Number [BP+0008]
_SB				  Number [BP+0008]
_SG				  Number [BP+000C]
_SPECIALAREA			  Word	 CODE:0540
_SR				  Number [BP+0010]
_TMPGRAN			  Word	 CODE:052F
_VMAXX				  Word	 CODE:0BCB
_VMAXY				  Word	 CODE:0BCD
Turbo Assembler	 Version 3.2	    03/09/00 02:20:48	    Page 70
Symbol Table



_VMINX				  Word	 CODE:0BC7
_VMINY				  Word	 CODE:0BC9
_VXMOUSEINIT			  Far	 CODE:577E
_WRITEMODE			  Byte	 CODE:0BC6
_XADD				  Word	 CODE:0112

Macro Name

CHECKNEXT
CHECKNEXTM
ERRORI
TESTREGISTER

Groups & Segments		  Bit Size Align  Combine Class

CODE				  16  590B Para	  none
Turbo Assembler	 Version 3.2	    03/09/00 02:20:48	    Page 71
Error Summary



**Error** my.asm(427) Undefined	symbol:	DRAWMOUSESWAP
**Error** my.asm(428) Undefined	symbol:	DRAWMOUSECURSOR
**Error** my.asm(459) Undefined	symbol:	DRAWMOUSESWAP
**Error** my.asm(513) Undefined	symbol:	DRAWMOUSECURSOR
**Error** my.asm(552) Undefined	symbol:	SHOWMOUSE
**Error** my.asm(556) Undefined	symbol:	HIDEMOUSE
**Error** my.asm(615) Undefined	symbol:	CHANGECURSOR
**Error** my.asm(655) Undefined	symbol:	DRAWMOUSESWAP
**Error** my.asm(687) Undefined	symbol:	SELECTAREA
